(dp1
S'semana'
p2
(dp3
S'3-'
p4
F0.99990941208442796
sS'ooothers'
p5
F9.0587915572062683e-05
ssS'-D'
p6
(dp7
g5
F1
ssS'v\xc3\xaddeo'
p8
(dp9
g5
F4.3763676148796499e-05
sS'explicativo'
p10
F0.99995623632385122
ssS'Hoje'
p11
(dp12
S'a'
F0.9999719652368938
sg5
F2.8034763106251752e-05
ssS'Rsrsrs'
p13
(dp14
g5
F1
ssS'minusculo'
p15
(dp16
S'tera'
p17
F0.99996165644171775
sg5
F3.8343558282208591e-05
ssS'Fim'
p18
(dp19
g5
F1
ssS'prazo'
p20
(dp21
S'o'
F0.99997050408518418
sg5
F2.9495914815798013e-05
ssS'vez'
p22
(dp23
S'um'
p24
F0.99995461353424409
sg5
F4.538646575591159e-05
ssS'0'
(dp25
g5
F4.7265680389469208e-05
sS'/'
F0.43782199744765327
sS'.'
F0.56213073687195725
ssS'Kkk'
p26
(dp27
g5
F8.1752779594506219e-05
sS'.'
F0.99991824722040545
ssS'Das'
p28
(dp29
S'Maravilhas'
p30
F0.99989100817438692
sg5
F0.00010899182561307902
ssS'te'
p31
(dp32
S'ama'
p33
F0.70486954853561834
sS'pe\xc3\xa7o'
p34
F0.14755723238265764
sS'visitar'
p35
F0.14755723238265764
sg5
F1.5986699066376776e-05
ssS'ta'
p36
(dp37
S'!'
F0.49999172582700357
sS'aki'
p38
F0.49999172582700357
sg5
F1.6548345992818019e-05
ssS'Beyonce'
p39
(dp40
g5
F0.00010951702989814916
sS'.'
F0.99989048297010186
ssS'internet'
p41
(dp42
S','
F0.9999719652368938
sg5
F2.8034763106251752e-05
ssS'Let\xc3\xadcia'
p43
(dp44
S'ira'
p45
F0.49997291587671305
sS','
F0.49997291587671305
sg5
F5.4168246573858405e-05
ssS'P'
(dp46
g5
F2.2081879609592369e-05
sS'.'
F0.99997791812039039
ssS'facebook'
p47
(dp48
g5
F2.6875218361149186e-05
sS','
F0.59507108495256522
sS'.'
F0.40490203982907363
ssS'Visitar'
p49
(dp50
S'Dicas'
p51
F0.99991235758106922
sg5
F8.7642418930762488e-05
ssS'rsrsrsrs'
p52
(dp53
g5
F1
ssS'Uau'
p54
(dp55
S'!'
F0.99991513196978699
sg5
F8.4868030213018761e-05
ssS'dia'
p56
(dp57
g5
F2.8126230522585363e-05
sS'que'
p58
F0.31045733250829721
sS'da'
p59
F0.68951454126118017
ssS'000'
p60
(dp61
g5
F2.7854377315395116e-05
sS'.'
F0.99997214562268455
ssS'aula'
p62
(dp63
S','
F0.99995461353424409
sg5
F4.538646575591159e-05
ssS'presentes'
p64
(dp65
S'!'
F0.99990206639898149
sg5
F9.7933601018509455e-05
ssS'p'
(dp66
g5
F1
ssS'?'
(dp67
g5
F1
ssS'diz'
p68
(dp69
S'Deus'
p70
F0.99997863293519373
sg5
F2.1367064806307558e-05
ssS'poste'
p71
(dp72
S','
F0.99994943877035092
sg5
F5.0561229649105063e-05
ssS'Muhte'
p73
(dp74
S'em'
p75
F0.99990623534927336
sg5
F9.376465072667604e-05
ssS'hora'
p76
(dp77
S'voc\xc3\xaa'
p78
F0.5295192649373065
sS'o'
F0.47042997106452106
sg5
F5.0763998172496063e-05
ssS'EM'
p79
(dp80
g5
F1
ssS'tem'
p81
(dp82
S'11'
p83
F0.36591743554309097
sS'visto'
p84
F0.63406901597366172
sg5
F1.3548483247300465e-05
ssS'Boy'
p85
(dp86
S'Do'
p87
F0.99989050695280846
sg5
F0.00010949304719150334
ssS'neste'
p88
(dp89
S'site'
p90
F0.99995385112372515
sg5
F4.6148876274862709e-05
ssS'est\xc3\xa1'
p91
(dp92
S'vindo'
p93
F0.45689495346508957
sS'super'
p94
F0.54306796692498793
sg5
F3.7079609922503618e-05
ssS'AVISO'
p95
(dp96
S'!'
F0.99992629173730374
sg5
F7.3708262696248252e-05
ssS'teu'
p97
(dp98
S'desejoir\xc3\xa1'
p99
F0.25843961524759529
sS'desejo'
p100
F0.74154613466334163
sg5
F1.4250089063056644e-05
ssS'nem'
p101
(dp102
S'leu'
p103
F0.99995483900103865
sg5
F4.5160998961297026e-05
ssS'sua'
p104
(dp105
S'dire\xc3\xa7\xc3\xa3o'
p106
F0.47759689922480619
sS'vida'
p107
F0.5223643410852713
sg5
F3.8759689922480622e-05
ssS'escola'
p108
(dp109
S'Recomendo'
p110
F0.33373181164428339
sS','
F0.66624950968489083
sg5
F1.8678670825784037e-05
ssS'saludos'
p111
(dp112
g5
F1
ssS'Que'
p113
(dp114
g5
F4.8820973490211392e-05
sS'.'
F0.99995117902650976
ssS';'
(dp115
S'D'
F0.53710600644887141
sS'Colar'
p116
F0.46286899792536307
sg5
F2.499562576549104e-05
ssS'Ore'
p117
(dp118
S'com'
p119
F0.99994597514856831
sg5
F5.4024851431658565e-05
ssS'True'
p120
(dp121
S'!'
F0.70474204990976419
sg5
F3.1115813056195161e-05
sS'.'
F0.29522683427717966
ssS'aparentemente'
p122
(dp123
S','
F0.99992580501558093
sg5
F7.4194984419053274e-05
ssS'190322544333196'
p124
(dp125
g5
F1
ssS'brshops'
p126
(dp127
g5
F3.117595710188303e-05
sS'.'
F0.99996882404289811
ssS'Mc'
p128
(dp129
S'Samuka'
p130
F0.061965133636382057
sS'Thesko'
p131
F0.061965133636382057
sS'G'
F0.061965133636382057
sg85
F0.061681447609269781
sS'Kelvinho'
p132
F0.066585163220782034
sS'Frank'
p133
F0.061971888065599015
sS'Gui'
p134
F0.066801304955724713
sS'Lon'
p135
F0.062383908247833519
sg39
F0.061667938750835857
sS'Gibi'
p136
F0.061965133636382057
sS'Nick'
p137
F0.061965133636382057
sS'Nego'
p138
F0.061769255189090246
sS'Danado'
p139
F0.061701710896920656
sS'Taysa'
p140
F0.061965133636382057
sS'Dimenor'
p141
F0.061965133636382057
sS'Dede'
p142
F0.061674693180052823
sg5
F6.754429216959021e-06
ssS'leg'
p143
(dp144
g5
F5.5806685640939783e-05
sS'.'
F0.99994419331435902
ssS'K'
(dp145
g5
F0.00011065619121389841
sS'.'
F0.99988934380878614
ssS'Mk'
p146
(dp147
g5
F0.00010899182561307902
sS'.'
F0.99989100817438692
ssS'meu'
p148
(dp149
S'amor'
p150
F0.99996667666366756
sg5
F3.3323336332433603e-05
ssS'melhor'
p151
(dp152
g56
F0.99992580501558093
sg5
F7.4194984419053274e-05
ssg103
(dp153
S'a'
F0.7057661046122462
sS','
F0.29420202084595032
sg5
F3.1874541803461572e-05
ssS'Hahaha'
p154
(dp155
g5
F8.9984702600557904e-05
sS'.'
F0.99991001529739942
ssS'outras'
p156
(dp157
S'imagens'
p158
F0.99995385112372515
sg5
F4.6148876274862709e-05
ssS'S\xc3\xb3'
p159
(dp160
S'acessar'
p161
F0.99993362978695166
sg5
F6.6370213048383883e-05
ssS'assombrar'
p162
(dp163
S'outra'
p164
F0.99995385112372515
sg5
F4.6148876274862709e-05
ssS'MC'
p165
(dp166
S'Thiaguinho'
p167
F0.99989100817438692
sg5
F0.00010899182561307902
ssS'Preciso'
p168
(dp169
S'de'
p170
F0.99991235758106922
sg5
F8.7642418930762488e-05
ssS'rsrsrsrsrs'
p171
(dp172
g5
F1
ssS'postou'
p173
(dp174
S'a'
F0.99996297530452816
sg5
F3.7024695471879742e-05
ssS'acertar'
p175
(dp176
g5
F9.7933601018509455e-05
sS'nos'
p177
F0.99990206639898149
ssg38
(dp178
g5
F3.3096144299189144e-05
sS'ta'
p179
F0.99996690385570086
ssg34
(dp180
S'gentil'
p181
F0.99989166937493235
sg5
F0.00010833062506770663
ssS'C\xc3\x93MO'
p182
(dp183
S'BESAS'
p184
F0.99989779231398201
sg5
F0.00010220768601798856
ssS'bom'
p185
(dp186
S'gosto'
p187
F0.99992960225272787
sg5
F7.0397747272087292e-05
ssg4
(dp188
S'Seu'
p189
F0.99990941208442796
sg5
F9.0587915572062683e-05
ssS'verdade'
p190
(dp191
S'!'
F0.27110609849785056
sg5
F1.6345478023504796e-05
sS'?'
F0.4561859461579954
sS'.'
F0.27269160986613056
ssS'Mountain'
p192
(dp193
S'e'
F0.9999128616242593
sg5
F8.7138375740676194e-05
ssS'minutos'
p194
(dp195
S'voc\xc3\xaa'
p196
F0.2844449134655973
sS','
F0.71553398058252426
sg5
F2.1105951878429718e-05
ssS'via'
p197
(dp198
S'Meu'
p199
F0.35835783020527123
sS'Talvez'
p200
F0.64161704479786941
sg5
F2.5124996859375393e-05
ssS'Beijos'
p201
(dp202
S'!'
F0.99993500584947359
sg5
F6.4994150526452625e-05
ssS'v\xc3\xaa'
p203
(dp204
S'na'
p205
F0.99992398327632082
sg5
F7.6016723679209425e-05
ssg139
(dp206
g5
F0.00010945709281961471
sS'.'
F0.99989054290718038
ssS'menina'
p207
(dp208
S'de'
p209
F0.33429960443276868
sS'que'
p210
F0.66568529758130268
sg5
F1.5097985928677114e-05
ssg137
(dp211
g5
F0.00010899182561307902
sS'.'
F0.99989100817438692
ssS'errado'
p212
(dp213
g5
F5.0561229649105063e-05
sS'nos'
p214
F0.99994943877035092
ssS'FEMININA'
p215
(dp216
S'?'
F0.99992594238317412
sg5
F7.4057616825890548e-05
ssg164
(dp217
S'pessoa'
p218
F0.99995385112372515
sg5
F4.6148876274862709e-05
ssS'ser\xc3\xa1'
p219
(dp220
S'realizado'
p221
F0.9999460014039635
sg5
F5.3998596036503052e-05
ssS'Tens'
p222
(dp223
S'20'
p224
F0.99997050408518418
sg5
F2.9495914815798013e-05
ssg141
(dp225
S'Dr'
p226
F0.99989100817438692
sg5
F0.00010899182561307902
ssS'menino'
p227
(dp228
S'ou'
p229
F0.99997732014877982
sg5
F2.2679851220175995e-05
ssS'fique'
p230
(dp231
S'por'
p232
F0.9999128616242593
sg5
F8.7138375740676194e-05
ssS'hahahahaha'
p233
(dp234
g5
F1
ssS'&'
(dp235
S'e-'
p236
F0.49999999726967842
sg5
F5.4606431760682112e-09
sS'&'
F0.49999999726967842
ssS'Hum'
p237
(dp238
g5
F7.2280448138778466e-05
sS'.'
F0.99992771955186122
ssS'm/'
p239
(dp240
g5
F1
ssS'unhasfashion'
p241
(dp242
g5
F4.864759680871765e-05
sS'.'
F0.99995135240319133
ssS'msm'
p243
(dp244
S'porque'
p245
F0.32049908809310135
sS'para'
p246
F0.67948643719422175
sg5
F1.4474712676953363e-05
ssS'doubt'
p247
(dp248
g5
F1
ssS'6'
(dp249
g5
F8.5394908755539995e-06
sS'5'
F0.85265108494231578
sS'.'
F0.14734037556680871
ssS'gastandobem'
p250
(dp251
g5
F8.5273300929478976e-05
sS'.'
F0.99991472669907056
ssS'Depois'
p252
(dp253
S'Do'
p254
F0.99996417054819065
sg5
F3.5829451809387319e-05
ssS'quiser'
p255
(dp256
S'curtir'
p257
F0.99993172663344032
sg5
F6.8273366559705063e-05
ssg131
(dp258
g5
F0.00010899182561307902
sS'.'
F0.99989100817438692
ssS'F'
(dp259
S'9'
F0.67667822830657787
sg5
F1.5347309616624206e-05
sS'.'
F0.32330642438380552
ssS'Sr'
p260
(dp261
g5
F4.4929685042907847e-05
sS'.'
F0.99995507031495712
ssS'chamada'
p262
(dp263
g5
F3.7024695471879742e-05
sS'Sandra'
p264
F0.99996297530452816
ssS'haha'
p265
(dp266
g5
F1
ssS'rsrsrsr'
p267
(dp268
g5
F1
ssS'DIA'
p269
(dp270
S'20'
p271
F0.9999121419785626
sg5
F8.7858021437357231e-05
ssS'perceber'
p272
(dp273
S'que'
p274
F0.9999719652368938
sg5
F2.8034763106251752e-05
ssS'So'
p275
(dp276
g120
F0.062868254855552516
sS'true'
p277
F0.92624912284874938
sS'so'
p278
F0.010881432938070148
sg5
F1.1893576279451468e-06
ssS'Agora'
p279
(dp280
g5
F9.8938391063884512e-06
sS'que'
p281
F0.091320134951965407
sS'Passa'
p282
F0.69429026545170325
sS'enviar'
p283
F0.21437970575722498
ssS'minha'
p284
(dp285
S'inf\xc3\xa2ncia'
p286
F0.99993380990203862
sg5
F6.6190097961344984e-05
ssS'V'
(dp287
g5
F7.2479524534319051e-05
sS'.'
F0.99992752047546563
ssS'pouco'
p288
(dp289
S'de'
p290
F0.99995890185763603
sg5
F4.1098142363965152e-05
ssS'Se'
p291
(dp292
S'voc\xc3\xaa'
p293
F0.62470435145553205
sS'vc'
p294
F0.16185581353476991
sS'achar'
p295
F0.21343165096694466
sg5
F8.1840427534393436e-06
ssS'me'
p296
(dp297
g5
F4.538646575591159e-05
sS'mata'
p298
F0.99995461353424409
ssS'dez'
p299
(dp300
S'minutos'
p301
F0.27717335417395061
sg5
F2.0566398617938014e-05
sg156
F0.44563272525348085
sS'coment\xc3\xa1rios'
p302
F0.27717335417395061
ssS'rsss'
p303
(dp304
g5
F1
ssS'10coment'
p305
(dp306
S'\xc3\xa1rios'
p307
F0.99994486408998184
sg5
F5.5135910018194853e-05
ssg10
(dp308
S'Confira'
p309
F0.99995623632385122
sg5
F4.3763676148796499e-05
ssS'Frases'
p310
(dp311
g5
F1
ssS'Prazer'
p312
(dp313
S','
F0.99993412384716729
sg5
F6.5876152832674566e-05
ssS'Aleluia'
p314
(dp315
S'!'
F0.99991138679663272
sg5
F8.8613203367301732e-05
ssS'SO'
p316
(dp317
S'TRUE'
p318
F0.99997214174281257
sg5
F2.7858257187430356e-05
ssS'v'
(dp319
g5
F0.00010809642200843153
sS'.'
F0.99989190357799151
ssg99
(dp320
S'se'
p321
F0.99994486408998184
sg5
F5.5135910018194853e-05
ssS'Basta'
p322
(dp323
S'acessar'
p324
F0.99992960225272787
sg5
F7.0397747272087292e-05
ssS'M\xc3\x83E'
p325
(dp326
S'MORRERA'
p327
F0.9999121419785626
sg5
F8.7858021437357231e-05
ssS'REPASSE'
p328
(dp329
S'ISSO'
p330
F0.9999121419785626
sg5
F8.7858021437357231e-05
ssS'noite'
p331
(dp332
S'a'
F0.54825619822007721
sS','
F0.45172843111637129
sg5
F1.5370663551545521e-05
ssS'Abs'
p333
(dp334
g5
F1
ssS'm\xc3\xa1'
p335
(dp336
S'sorte'
p337
F0.99997232676555237
sg5
F2.767323444764224e-05
ssS'inicial'
p338
(dp339
S'do'
p340
F0.99997732014877982
sg5
F2.2679851220175995e-05
ssS'CLIQUE'
p341
(dp342
S'AQUI'
p343
F0.99992991309223433
sg5
F7.0086907765629382e-05
ssS'!'
(dp344
g5
F1
ssS'falava'
p345
(dp346
S'de'
p347
F0.99995483900103865
sg5
F4.5160998961297026e-05
ssS'outros'
p348
(dp349
g5
F4.2806386712897568e-05
sS'15'
p350
F0.47249689653696331
sS'coment\xc3\xa1rios'
p351
F0.5274602970763238
ssS'aff'
p352
(dp353
g5
F9.6796050721130583e-05
sS'.'
F0.9999032039492789
ssg307
(dp354
S'diferentes'
p355
F0.99994486408998184
sg5
F5.5135910018194853e-05
ssS'rsrsrs'
p356
(dp357
g5
F1
ssS'1'
(dp358
g76
F0.033010851712253986
sS'00'
p359
F0.029327155864007064
sS'e'
F0.24605442628968913
sS'dia'
p360
F0.034931816815248727
sS'.'
F0.50355236133132064
sS'1'
F0.076120220135638489
sg288
F0.07700000316468715
sg5
F3.1646871548513072e-06
ssg93
(dp361
S'em'
p362
F0.99991885092915689
sg5
F8.1149070843138842e-05
ssg330
(dp363
S'PARA'
p364
F0.9999121419785626
sg5
F8.7858021437357231e-05
ssS'A'
(dp365
S'vida'
p366
F0.082545720312941218
sg5
F8.305233958440609e-06
sS'Amizade'
p367
F0.12729432088101922
sS'.'
F0.79015165357208117
ssS'mas'
p368
(dp369
S'.'
F0.11093733375891052
sg5
F1.0639429726566655e-05
sS'tudo'
p370
F0.28734971805511222
sS'd\xc3\xb3i'
p371
F0.60170230875625064
ssS'pr\xc3\xb3ximos'
p372
(dp373
S'dez'
p374
F0.40526236656141934
sS'3'
F0.59470756277251546
sg5
F3.0070666065253345e-05
ssS'pimpm'
p375
(dp376
S'ywindow'
p377
F0.99993535040082748
sg5
F6.464959917248513e-05
ssS'Q'
(dp378
g5
F8.4359709802598272e-05
sS'.'
F0.99991564029019742
ssS'diferentes'
p379
(dp380
g5
F1.1274846943952736e-05
sS'e'
F0.79120110944493927
sS'coment\xc3\xa1rios'
p381
F0.20878761570811677
ssS'fb'
p382
(dp383
g5
F1.3585110718652357e-05
sS'.'
F0.99998641488928131
ssg187
(dp384
g5
F1
ssS'hahahaha'
p385
(dp386
g5
F1
ssS'COMENTARIOS'
p387
(dp388
S'OU'
p389
F0.9999121419785626
sg5
F8.7858021437357231e-05
ssS'a'
(dp390
S'letra'
p391
F0.12379965632265238
sg299
F0.060839875557352562
sS'm\xc3\xa3o'
p392
F0.061985466716084327
sS'vida'
p393
F0.050167346159461799
sS'meia-'
p394
F0.10015218392353741
sS'.'
F0.057338522187405233
sS'pegarem'
p395
F0.025916192144838663
sS'dor'
p396
F0.025916192144838663
sS'mensagem'
p397
F0.062170782932937992
sS'apenas'
p398
F0.075833642193694761
sS'pessoa'
p399
F0.10015218392353741
sS'Deus'
p400
F0.25572514797219131
sg5
F2.8078214674798116e-06
ssS'sentir'
p401
(dp402
S'a'
F0.99989166937493235
sg5
F0.00010833062506770663
ssS'ss'
p403
(dp404
g5
F1
ssS'isso'
p405
(dp406
S'a'
F0.19999815397679549
sS'em'
p407
F0.10188202065699965
sS'pra'
p408
F0.085535485181048726
sS'para'
p409
F0.35645785067518299
sS'no'
p410
F0.17092328850573651
sS','
F0.085193970888214066
sg5
F9.2301160225584038e-06
ssS'Signo'
p411
(dp412
g5
F1
ssS'q'
(dp413
S'fazer'
p414
F0.49999172582700357
sg5
F1.6548345992818019e-05
sg36
F0.49999172582700357
ssS'Salmo-100'
p415
(dp416
S'4'
F0.99997863293519373
sg5
F2.1367064806307558e-05
ssS'so'
p417
(dp418
S'true'
p419
F0.99999643930438253
sg5
F3.5606956174958342e-06
ssg283
(dp420
S'isso'
p421
F0.99995385112372515
sg5
F4.6148876274862709e-05
ssS'se'
p422
(dp423
S'realizar'
p424
F0.15522183050226637
sS'voc\xc3\xaa'
p425
F0.16038185064786412
sS'vc'
p426
F0.16544572134975505
sS'tornar'
p427
F0.32129481250858477
sS'n\xc3\xa3o'
p428
F0.15522183050226637
sS'realiza'
p429
F0.042429375944324894
sg5
F4.5785449384185703e-06
ssS'realidade'
p430
(dp431
S'!'
F0.99998574991093692
sg5
F1.4250089063056644e-05
ssS'Rs'
p432
(dp433
g5
F7.3605181804799064e-05
sS'.'
F0.99992639481819523
ssS'compensa'
p434
(dp435
S'Perfeita-'
p436
F0.99989939637826963
sg5
F0.00010060362173038229
ssS'Leleks'
p437
(dp438
g5
F0.00010899182561307902
sS'.'
F0.99989100817438692
ssg140
(dp439
S'e'
F0.99989100817438692
sg5
F0.00010899182561307902
ssS'Compartilha'
p440
(dp441
S'?'
F0.99989565943238734
sg5
F0.00010434056761268782
ssS'rsrsr'
p442
(dp443
g5
F1
ssg318
(dp444
S'!'
F0.99993518698554673
sg5
F6.481301445330222e-05
ssS'cola'
p445
(dp446
S','
F0.99994403402731136
sg5
F5.596597268860533e-05
ssS'Urban'
p447
(dp448
g192
F0.9999128616242593
sg5
F8.7138375740676194e-05
ssS'20'
p449
(dp450
g194
F0.18019081027930586
sS'fotos'
p451
F0.1562039916022217
sS'comentarios'
p452
F0.053533179196896014
sg348
F0.065492040713279645
sS'.'
F0.060490579074649872
sg5
F5.3150495628371734e-06
sg387
F0.060490579074649872
sS'coment\xc3\xa1rios'
p453
F0.42359350500943421
ssS'mais'
p454
(dp455
S'em'
p456
F0.99990597085096378
sg5
F9.4029149036201217e-05
ssS'gente'
p457
(dp458
S'eu'
p459
F0.99996667666366756
sg5
F3.3323336332433603e-05
ssS','
(dp460
S'em'
p461
F0.061992517199053472
sS'n\xc3\xa3o'
p462
F0.039095596226823633
sS'precionar'
p463
F0.033023026274164091
sS'Tchau'
p464
F0.018823701441585083
sS'por'
p465
F0.017324891631551494
sS'pressionar'
p466
F0.028969490924889381
sS'vai'
p467
F0.013703002259462818
sS'no'
p468
F0.050151076092015114
sS'ela'
p469
F0.03097727742463419
sS'.'
F0.074986888929194598
sg108
F0.050151076092015114
sS'beijo'
p470
F0.037647402883170165
sS'tudo'
p471
F0.027806718211101596
sS'te'
p472
F0.01297749957468108
sg5
F1.4060129550033674e-06
sS'exatamente'
p473
F0.041321314734593967
sg368
F0.079515656657260445
sS'Ciumes'
p474
F0.021341870643996112
sg148
F0.042191636753741046
sS'excluiu'
p475
F0.03113193884968456
sS'e'
F0.14702677470470213
sS'o'
F0.01297749957468108
sS'agora'
p476
F0.026036547900752358
sS'amor'
p477
F0.034209701208186935
sS'se'
p478
F0.066615487795104539
ssS'2-'
p479
(dp480
S'Diga'
p481
F0.99990941208442796
sg5
F9.0587915572062683e-05
ssS'passar'
p482
(dp483
S'isso'
p484
F0.99994583175342611
sg5
F5.4168246573858405e-05
ssg158
(dp485
g88
F0.99995385112372515
sg5
F4.6148876274862709e-05
ssS'lindas'
p486
(dp487
g5
F7.0911927386186358e-05
sS'.'
F0.99992908807261383
ssg257
(dp488
g91
F0.99993172663344032
sg5
F6.8273366559705063e-05
ssS'L'
(dp489
g5
F4.6533271288971617e-05
sS'.'
F0.99995346672871099
ssS'ClubeDasUnhas'
p490
(dp491
g5
F9.3852651337400283e-05
sS'.'
F0.99990614734866257
ssS'Era'
p492
(dp493
S'uma'
p494
F0.99995461353424409
sg5
F4.538646575591159e-05
ssS'kkk'
p495
(dp496
g5
F4.6513791339132053e-05
sS'.'
F0.99995348620866087
ssS'das'
p497
(dp498
S'novidades'
p499
F0.20639602856269224
sg310
F0.79358598485529797
sg5
F1.7986582009820675e-05
ssg429
(dp500
g5
F1
ssS'nos'
p501
(dp502
g64
F0.23490164500172553
sg372
F0.76507534798113419
sg5
F2.300701714022777e-05
ssS'Morgado'
p503
(dp504
g5
F1
ssS'l'
(dp505
g5
F7.1428571428571434e-05
sS'.'
F0.99992857142857139
ssg17
(dp506
S'nova'
p507
F0.99996165644171775
sg5
F3.8343558282208591e-05
ssS'mensagem'
p508
(dp509
S'toda'
p510
F0.39115303761018955
sg5
F1.7665659724062395e-05
sS'para'
p511
F0.21767625911989683
sS'no'
p512
F0.39115303761018955
ssg35
(dp513
S','
F0.99989166937493235
sg5
F0.00010833062506770663
ssS'mensagens'
p514
(dp515
S'em'
p516
F0.99998574991093692
sg5
F1.4250089063056644e-05
ssS'Aff'
p517
(dp518
S'!'
F0.36767363800671315
sg5
F3.6885397071299475e-05
sS'.'
F0.63228947659621559
ssS'Muy'
p519
(dp520
g5
F4.7252279922506264e-05
sS'lindo'
p521
F0.99995274772007747
ssg510
(dp522
S'a'
F0.44656335916020995
sS's\xc3\xb3'
p523
F0.55341164708822799
sg5
F2.4993751562109472e-05
ssS'not\xc3\xadcia'
p524
(dp525
g5
F1
ssS'Abra'
p526
(dp527
S'a'
F0.99990941208442796
sg5
F9.0587915572062683e-05
ssS'eu'
p528
(dp529
g5
F7.8685016012400766e-06
sS'n\xc3\xa3o'
p530
F0.44499523955653125
sS'o'
F0.17335882727852134
sS'encontrei'
p531
F0.23611799605001219
sS'.'
F0.14552006861333397
ssS'es'
p532
(dp533
g5
F3.8389189604207458e-05
sS'.'
F0.99996161081039581
ssS'goo'
p534
(dp535
g5
F5.8380524257107832e-05
sS'.'
F0.99994161947574289
ssS'SABER'
p536
(dp537
S'MAIS'
p538
F0.99992411019200123
sg5
F7.5889807998785763e-05
ssS'rs'
p539
(dp540
g5
F2.6153363322523277e-05
sS'.'
F0.99997384663667743
ssS'assim'
p541
(dp542
S'voc\xc3\xaa'
p543
F0.99989166937493235
sg5
F0.00010833062506770663
ssS'Haha'
p544
(dp545
g5
F1
ssS'mande'
p546
(dp547
S'essa'
p548
F0.82806491444699237
sS','
F0.17191744575762921
sg5
F1.7639795378373612e-05
ssg414
(dp549
S'tudo'
p550
F0.99996690385570086
sg5
F3.3096144299189144e-05
ssS'7'
(dp551
S'.'
F0.18088745600866291
sg5
F8.2035127441570483e-06
sS'6'
F0.81910434047859293
ssg298
(dp552
g5
F1
ssS'mato'
p553
(dp554
g5
F4.538646575591159e-05
sg62
F0.99995461353424409
ssS'gov'
p555
(dp556
g5
F4.7844600736806848e-05
sS'.'
F0.99995215539926319
ssS'melhores'
p557
(dp558
S'Dicas'
p559
F0.99990206639898149
sg5
F9.7933601018509455e-05
ssg236
(dp560
g5
F1
ssS'G'
(dp561
g5
F4.0591005033284626e-05
sS'7'
F0.37238188017535312
sS'.'
F0.62757752881961359
ssg132
(dp562
g5
F0.00010143016533116949
sS'.'
F0.99989856983466885
ssS'SWAG'
p563
(dp564
S'!'
F0.99992205160183956
sg5
F7.794839816041781e-05
ssS'que'
p565
(dp566
g296
F0.073456160355278161
sS'voc\xc3\xaa'
p567
F0.27811118446058131
sS'vc'
p568
F0.1972300572792681
sS'ama'
p569
F0.11892282968919829
sS'pediste'
p570
F0.11303153360405956
sS'n\xc3\xa3o'
p571
F0.07224256002987324
sg31
F0.14700234051491329
sg5
F3.3340668280355012e-06
ssS'acontecer'
p572
(dp573
S'de'
p574
F0.8711106409425704
sS'tudo'
p575
F0.12887613556722161
sg5
F1.32234902080055e-05
ssS'clique'
p576
(dp577
S'aqui-'
p578
F0.99993488311519174
sg5
F6.5116884808230771e-05
ssS'org'
p579
(dp580
g5
F3.1127435721845237e-05
sS'.'
F0.99996887256427813
ssS'Ba\xc3\xba'
p581
(dp582
g5
F2.2664430442862972e-05
sg497
F0.99997733556955715
ssg424
(dp583
S'ao'
p584
F0.99997050408518418
sg5
F2.9495914815798013e-05
ssS'Via'
p585
(dp586
S'A'
F0.24879843796936016
sS'E'
F0.7511765294883348
sg5
F2.5032542304996496e-05
ssS'g'
(dp587
g15
F0.99996165644171775
sg5
F3.8343558282208591e-05
ssS'ir\xc3\xa1'
p588
(dp589
g5
F8.6995858997111743e-06
sS'dar'
p590
F0.17205171033858788
sg422
F0.74764241222117822
sS'ajudar'
p591
F0.080297177854334129
ssS'Jesus'
p592
(dp593
g5
F1.7665659724062395e-05
sS','
F0.60882929673008634
sS'disse-lhe'
p594
F0.39115303761018955
ssS'envie-esta'
p595
(dp596
S'msm'
p597
F0.99995483900103865
sg5
F4.5160998961297026e-05
ssS'Eu'
p598
(dp599
S'n\xc3\xa3o'
p600
F0.32396665049186113
sg5
F1.4704368667931243e-05
sS'.'
F0.67601864513947096
ssS'ter\xc3\xa1'
p601
(dp602
S'o'
F0.27164251305101483
sg335
F0.72833733094148712
sg5
F2.0156007498034791e-05
ssS'merda'
p603
(dp604
S'Recomendo'
p605
F0.99993380990203862
sg5
F6.6190097961344984e-05
ssg398
(dp606
S'10'
p607
F0.99996297530452816
sg5
F3.7024695471879742e-05
ssg507
(dp608
S'amizade'
p609
F0.99996165644171775
sg5
F3.8343558282208591e-05
ssS'Euu'
p610
(dp611
g5
F1
ssS'Prof'
p612
(dp613
g5
F7.1916576770945708e-05
sS'.'
F0.99992808342322903
ssS'hehe'
p614
(dp615
g5
F1
ssS'1O'
p616
(dp617
S'9'
F0.80364527005534703
sS'diferentes'
p618
F0.19634412706491083
sg5
F1.0602879742137965e-05
ssS'instagram'
p619
(dp620
g5
F3.2155374770892955e-05
sS'.'
F0.99996784462522914
ssS'rsrs'
p621
(dp622
g5
F4.067189978443893e-05
sS'.'
F0.99995932810021559
ssS'\xc3\xa9'
p623
(dp624
S'uma'
p625
F0.32128198039173989
sS'verdade'
p626
F0.35273601156929885
sS'Tudo'
p627
F0.32596074094553495
sg5
F2.1267093426341423e-05
ssS'Okay'
p628
(dp629
g5
F7.7675935995028734e-05
sS'.'
F0.99992232406400494
ssS'nome'
p630
(dp631
S'do'
p632
F0.33332326740147972
sS'de'
p633
F0.33332326740147972
sS'4-'
p634
F0.33332326740147972
sg5
F3.0197795560924053e-05
ssS'bonito'
p635
(dp636
S'vai'
p637
F0.99998482019521229
sg5
F1.517980478771043e-05
ssS'bbbegin'
p638
(dp639
g6
F7.6314298907438502e-05
sg495
F0.0010883171608680722
sg432
F0.0002934149206850147
sg11
F0.00016590813236602817
sg13
F9.5691721303268866e-05
sS'hehehe'
p640
F0.00010121749610073562
sS'BR'
p641
F0.00010230590628811543
sS'guerrameme'
p642
F8.3272681985729972e-05
sS'Jogue'
p643
F0.00012061352379891436
sS'Kkkk'
p644
F0.00055458685240029914
sS'Enhorabuena'
p645
F6.2769638797823037e-05
sg171
F4.5806254381694056e-05
sS','
F0.00033420239475823513
sS'0'
F0.00023239883163352578
sS'Federado'
p646
F4.2671260935993223e-05
sS'4'
F0.00015051689599833668
sS'Acesse'
p647
F0.00063652925526812038
sS'8'
F0.00021747737915013072
sS'Compartilhe'
p648
F4.6406275382429082e-05
sg486
F6.5588342103601533e-05
sS'Ok'
p649
F4.341082170434105e-05
sS'D'
F0.0018899452178500666
sS'H'
F4.2680563587167411e-05
sS'L'
F9.9952335541046263e-05
sS'P'
F0.00063916655687600227
sS'Curte'
p650
F4.4573653101114356e-05
sg490
F4.9555222804891198e-05
sS'Algo'
p651
F0.00014050259200932498
sS'Curta'
p652
F0.0004795981812851822
sS'Neguinho'
p653
F8.5342521871986445e-05
sS'bit'
p654
F5.7215956046833734e-05
sS';'
F9.9947684215459162e-05
sg52
F0.00013473494828132937
sS'Comente'
p655
F4.2829406005954394e-05
sg117
F8.6091385291508455e-05
sS'ema'
p656
F4.3285235913489532e-05
sS'MAIS'
p657
F6.280219807693269e-05
sS'Show'
p658
F7.3690951276317925e-05
sg54
F5.4801918067132352e-05
sS'l'
F6.5113906893718025e-05
sS'Lindona'
p659
F4.2531721168380428e-05
sS'urbanmountain'
p660
F5.9509059561270692e-05
sS'p'
F0.00023505008721816891
sS'blogspot'
p661
F7.9477200306661894e-05
sS'x'
F7.2262994321080313e-05
sS'Ronaldinho'
p662
F4.4057355960947006e-05
sS'Rsrs'
p663
F0.0002262172199282789
sS'www'
p664
F0.0023938372726766367
sg619
F0.00014464692310742504
sg517
F0.00018690421606616696
sS'Confira'
p665
F4.7490034244221805e-05
sg519
F9.843135207406678e-05
sS'mas'
p666
F4.8499371896621033e-05
sS'Mande'
p667
F4.3103834215592896e-05
sg610
F8.3802933102658598e-05
sg95
F6.3099882914506656e-05
sS'Uma'
p668
F0.00018293663534037644
sS'eu'
p669
F8.6021615407702061e-05
sS'Emma'
p670
F6.8900085921611901e-05
sS'5'
F0.0001181157619586453
sS'com/watch'
p671
F5.5169372788512712e-05
sS'o/'
p672
F0.00041208884171411113
sg534
F7.9667904655732712e-05
sg442
F7.3988636113891891e-05
sS'parabens'
p673
F5.3141394832540067e-05
sS'Entao'
p674
F7.0602471086488028e-05
sg536
F6.1285865935540307e-05
sg539
F0.0011687711395480236
sg614
F0.00010091981126316166
sg544
F0.00010375711987128852
sS'/'
F0.00081825189463026558
sS'Meu'
p675
F0.00020983990253612366
sS'3'
F0.0046829034365039983
sg113
F9.5268450674843388e-05
sS'7'
F5.9890468259412335e-05
sS'net'
p676
F0.00032173684218482528
sg555
F9.721270477024835e-05
sS'humorcritico'
p677
F4.3987586077140606e-05
sS'Diga'
p678
F5.1341331830334994e-05
sg5
F4.6513255870932223e-09
sS'Leia'
p679
F4.9462196293149332e-05
sS'net/index'
p680
F4.2559629121902987e-05
sS'C'
F0.00022519857962470546
sg126
F0.00014919126820601511
sS'G'
F7.1914144902048317e-05
sg143
F8.3342451869536366e-05
sS'K'
F4.2029378004974361e-05
sS'hahaha'
p681
F0.00028665654460696823
sS'Bonde'
p682
F4.2671260935993223e-05
sg563
F5.9667204631231857e-05
sS'O'
F0.0035995120294326582
sS'S'
F0.00030669445523616581
sS'br'
p683
F0.0033415541636980552
sg154
F0.00020932360539595629
sg579
F0.00014942383448536978
sg159
F7.007687129514649e-05
sS'WWW'
p684
F0.00042562419917255241
sg585
F0.00018580650322761296
sg165
F4.2671260935993223e-05
sg111
F7.8532981212481965e-05
sg168
F5.3066973623146579e-05
sS'Saiba'
p685
F0.00010690141596816353
sS'o'
F0.0034001283068163198
sS'pimpmywindow'
p686
F0.00021352840372668857
sS'etc'
p687
F7.5072394975684607e-05
sS's'
F0.00013432098030407809
sg182
F4.5503918218532995e-05
sS'KKK'
p688
F4.8662168292169293e-05
sg598
F0.00021384004254102382
sS'LEIA'
p689
F7.8021335397901716e-05
sS'com'
p690
F0.0089973800245799294
sS'Kapela'
p691
F4.2671260935993223e-05
sS'Apenas'
p692
F8.7607717432900851e-05
sg197
F0.00018512275836631025
sS'os'
p693
F5.191809620313455e-05
sg201
F7.1560644157429233e-05
sS'No'
p694
F7.5923587558122678e-05
sg576
F7.1425755715403533e-05
sS'menina'
p695
F0.00010298965114941813
sS'Y'
F8.0444676028777287e-05
sS'lol'
p696
F0.00010637581617682201
sS'muhte'
p697
F4.9048228315898036e-05
sg222
F0.00015768924005363444
sS'COM'
p698
F0.00064183176643740675
sg616
F0.00035254722287373079
sg621
F0.00068299134655759467
sS'Recomendo'
p699
F0.00045851372239888861
sg623
F7.7146886187528195e-05
sg233
F5.5564735463415638e-05
sg628
F5.9876514282651052e-05
sS'pt'
p700
F8.1658672007008616e-05
sS'&'
F0.42589539471090793
sS'Assim'
p701
F0.00020508159646052729
sg237
F6.4346438171847638e-05
sg239
F0.00046822569022473924
sg241
F9.5607997442701196e-05
sS'xD'
p702
F0.00020236057099207774
sS'.'
F0.50320477960914678
sS'2'
F0.00029865231329608162
sS'6'
F8.0253971679706469e-05
sS'Visite'
p703
F0.00010247800533483788
sS'Euuu'
p704
F6.3555712822041801e-05
sg250
F5.4541443834255127e-05
sS'parab\xc3\xa9ns'
p705
F7.7700393932392286e-05
sS'twitter'
p706
F6.0192804422573396e-05
sS'Opa'
p707
F4.7178395429886556e-05
sS'recomendo'
p708
F0.00014427016573487049
sS'B'
F0.00014119098819621477
sS'COMPUTERONLINE'
p709
F0.00031326677829072856
sg26
F0.00039367889504039619
sS'F'
F9.7984824817705824e-05
sS'Kk'
p710
F9.2412536764368151e-05
sg260
F0.00010351990226634677
sS'Vdd'
p711
F4.2936386494457536e-05
sS'J'
F7.6346858186548155e-05
sg265
F0.0001949835686109479
sS'c'
F6.7127930872929394e-05
sS'XD'
p712
F0.00013665594574879889
sS'Coruja'
p713
F6.467203096294417e-05
sS'As\xc3\xad'
p714
F0.00042262874549446443
sS'Hahahaha'
p715
F9.8854622702492257e-05
sS'R'
F0.00016872683567180664
sg275
F0.0039107833890465234
sg279
F0.00042718704456981576
sS'V'
F6.4169687799538097e-05
sg291
F0.00056833617083574671
sS'rss'
p716
F5.3304191228088333e-05
sS'11'
p717
F5.2001820063702226e-05
sS'10'
p718
F7.1207143412810149e-05
sS'Www'
p719
F5.8927643862884036e-05
sS'12'
p720
F5.9741625840625352e-05
sS'OMG'
p721
F8.5533226221057277e-05
sS'Tem'
p722
F0.00014053515128843464
sS'Compre'
p723
F0.000126832346108858
sg73
F4.9601736060762127e-05
sS'maribelimportados'
p724
F4.2754984796560906e-05
sS'marombeirass'
p725
F5.8383438769194134e-05
sg314
F5.2485557924759923e-05
sS'Curta-nos'
p726
F8.3105234264594605e-05
sg333
F4.6024866684287439e-05
sg316
F0.00016695933194871122
sS'v'
F0.00026797682104920184
sg122
F6.2685914937255367e-05
sg128
F0.00068862875316915166
sS'n\xc3\xa3o'
p727
F0.00012640442415484541
sg403
F8.2412186752117713e-05
sS'm'
F0.00041393541797218718
sS'Quem'
p728
F6.812331454856734e-05
sg328
F5.2936736506707966e-05
sS'Saludos'
p729
F0.00019129506742038296
sS'muscleforcesuplementos'
p730
F8.0695847610480324e-05
sg322
F6.6067428639072129e-05
sg341
F6.6360462151059007e-05
sS'Linda'
p731
F7.1290867273377819e-05
sS'Assista'
p732
F0.00010627813833949305
sS'Mas'
p733
F7.5825909720793718e-05
sS'no'
p734
F5.5839163673054139e-05
sg352
F0.00012973942460079127
sg303
F4.2350319470483792e-05
sS'-'
F4.7810975709731236e-05
sg356
F0.00037251536361912203
sS'1'
F0.00062245899536716347
sS'html'
p735
F0.00012176705254451347
sS'massa'
p736
F0.00013542799579380628
sS'lindo'
p737
F5.7788069094046195e-05
sS'9'
F0.00015578219656292621
sg417
F0.001263737254059706
sS'Dr'
p738
F0.00011247370402150122
sS'Nossa'
p739
F7.4667729649607507e-05
sS'A'
F0.0004425224650304621
sS'LivroDesistirNunca'
p740
F0.00025399493633439962
sS'E'
F0.00049503593090874463
sS'Entre'
p741
F6.6197665755510742e-05
sS'I'
F0.00010449668063963634
sS'Caso'
p742
F4.5331819171810547e-05
sS'M'
F0.00010625488171155758
sS'Curtiu'
p743
F6.961173873643717e-05
sg375
F7.1942052855570869e-05
sS'Q'
F5.5132162183815972e-05
sg382
F0.00034237942514034504
sg60
F0.00016698258857664668
sS'U'
F0.00021142600456132245
sg267
F5.2643702994721095e-05
sS'Gl\xc3\xb3ria'
p744
F0.00042362412917010234
sg385
F0.00013254417392980847
sS'N'
F5.3397217739830198e-05
sS'a'
F9.4984719814030698e-05
sS'Dentro'
p745
F4.8517977198969404e-05
sS'e'
F0.00068547050309551532
sS'kk'
p746
F0.00033796996848378067
sS'Ah'
p747
F0.00022421249860024172
sS'youtube'
p748
F0.00014946569641565363
sS'hum'
p749
F4.1959608121167961e-05
sS'sk'
p750
F4.5922537521371385e-05
sg415
F0.00021768203747596281
sS'u'
F0.0012688583635310957
sS'Av'
p751
F5.0104079224168194e-05
sS'y'
F0.0001762480291461364
sS'se'
p752
F0.0001680756500896136
sS'T'
F0.00022903127190847028
ssg702
(dp753
g5
F1
ssS'2'
(dp754
S'1'
F0.60861773651840523
sg5
F6.0954424376893398e-06
sS'.'
F0.39137616803915715
ssg499
(dp755
S'!'
F0.9999128616242593
sg5
F8.7138375740676194e-05
ssg725
(dp756
g5
F1
ssS'B'
(dp757
g5
F5.2778804032300627e-05
sS'.'
F0.99994722119596768
ssg709
(dp758
g5
F1.4847589493845675e-05
sS'.'
F0.99998515241050612
ssg246
(dp759
S'10'
p760
F0.062960007094085307
sg449
F0.60472984495330862
sg175
F0.069644818248170204
sS'toda'
p761
F0.1218750213163621
sg49
F0.077823480058116928
sg482
F0.062960007094085307
sg5
F6.8212358715152012e-06
ssg710
(dp762
g5
F1
ssg749
(dp763
g5
F0.00011084016847705608
sS'.'
F0.99988915983152293
ssg712
(dp764
g5
F1
ssg714
(dp765
g532
F0.99998899442017097
sg5
F1.1005579828973289e-05
ssg715
(dp766
g5
F1
ssS'R'
(dp767
g5
F2.7566435108611755e-05
sS'.'
F0.99997243356489141
ssS'P\xc3\xa1gina'
p768
(dp769
S'Sentimentos'
p770
F0.99993475991649272
sg5
F6.5240083507306883e-05
ssg716
(dp771
g5
F1
ssS'11'
p772
(dp773
S'mas'
p774
F0.39965669300659978
sg5
F1.4797715232768061e-05
sS'59'
p775
F0.43489005297582051
sS'.'
F0.16543845630234691
ssS'10'
p776
(dp777
S'Filhos'
p778
F0.060924358529356792
sS'fotos'
p779
F0.1442234266947908
sg5
F5.3400261661282136e-06
sS'.'
F0.081750460577256823
sS'rela\xc3\xa7\xc3\xb5es'
p780
F0.19296184551304302
sS'anos'
p781
F0.19296184551304302
sS'comentarios'
p782
F0.049288441513363417
sS'coment\xc3\xa1rios'
p783
F0.27788428163298001
ssg189
(dp784
g5
F9.0587915572062683e-05
sS'nome'
p785
F0.99990941208442796
ssg720
(dp786
g5
F7.7851304009342152e-05
sS'.'
F0.99992214869599061
ssg721
(dp787
S'!'
F0.99994562262098963
sg5
F5.4377379010331703e-05
ssS'colar'
p788
(dp789
S'em'
p790
F0.99997732014877982
sg5
F2.2679851220175995e-05
ssS'bem'
p791
(dp792
S'no'
p793
F0.2901148579388651
sg5
F2.6283281204825612e-05
sS'.'
F0.70985885877993005
ssS'amanha'
p794
(dp795
g5
F1
ssg723
(dp796
S'j\xc3\xa1'
p797
F0.51758406982287575
sS'tudo'
p798
F0.48237925849866148
sg5
F3.667167846272324e-05
ssg724
(dp799
g5
F0.00010877841836179702
sS'.'
F0.99989122158163823
ssg730
(dp800
g5
F5.7636887608069166e-05
sS'.'
F0.99994236311239193
ssS'1-'
p801
(dp802
S'feche'
p803
F0.99990941208442796
sg5
F9.0587915572062683e-05
ssS'sai'
p804
(dp805
g5
F5.596597268860533e-05
sS'da'
p806
F0.99994403402731136
ssg428
(dp807
S'chore'
p808
F0.25827872034343391
sS'cumprires'
p809
F0.15482839723243441
sg434
F0.045390815883817048
sS'publicar'
p810
F0.13421779736487566
sg804
F0.081597515584682478
sS'.'
F0.098956454227844631
sS'mande'
p811
F0.044509396478889317
sg553
F0.10061882035941817
sg5
F4.5669399219053272e-06
sg445
F0.081597515584682478
ssg408
(dp812
S'20'
p813
F0.99989210185584809
sg5
F0.00010789814415192059
ssS'esta'
p814
(dp815
g514
F0.62719196324830628
sS'noite'
p816
F0.26266914538011904
sS'mensagem'
p817
F0.11012995370287613
sg5
F8.9376686984966838e-06
ssS'Mais'
p818
(dp819
S'em'
p820
F0.99995649147232857
sg5
F4.3508527671423602e-05
ssS'Canguru'
p821
(dp822
g5
F0.00010899182561307902
sS'.'
F0.99989100817438692
ssS'matei'
p823
(dp824
S'Recomendo'
p825
F0.99995461353424409
sg5
F4.538646575591159e-05
ssS'Paz'
p826
(dp827
S','
F0.99995890185763603
sg5
F4.1098142363965152e-05
ssS'ano'
p828
(dp829
g5
F1
ssg750
(dp830
S'app'
p831
F0.99989872392140977
sg5
F0.00010127607859023699
ssS'sonho'
p832
(dp833
S'de'
p834
F0.99992989343802585
sg5
F7.0106561974200786e-05
ssg729
(dp835
g5
F1
ssg531
(dp836
S'voc\xc3\xaa'
p837
F0.99996667666366756
sg5
F3.3323336332433603e-05
ssg732
(dp838
S'o'
F0.99995623632385122
sg5
F4.3763676148796499e-05
ssS'Escritos'
p839
(dp840
S'3'
F0.99993475991649272
sg5
F6.5240083507306883e-05
ssS'quebrar'
p841
(dp842
S'essa'
p843
F0.99997232676555237
sg5
F2.767323444764224e-05
ssS'-'
(dp844
g5
F9.7276264591439695e-05
sS'.'
F0.99990272373540856
ssS'Pastor'
p845
(dp846
S'Davi'
p847
F0.99994597514856831
sg5
F5.4024851431658565e-05
ssg645
(dp848
S'!'
F0.99992590397154713
sg5
F7.409602845287492e-05
ssg736
(dp849
g5
F1
ssS'recebeu'
p850
(dp851
S'uma'
p852
F0.99995483900103865
sg5
F4.5160998961297026e-05
ssg521
(dp853
S'd'
F0.46552757793764987
sg832
F0.53443495203836933
sg5
F3.7470023980815345e-05
ssg51
(dp854
S'de'
p855
F0.52770582793709531
sS'para'
p856
F0.47224791859389453
sg5
F4.6253469010175761e-05
ssg738
(dp857
g5
F2.997961386257345e-05
sS'.'
F0.99997002038613747
ssS'manh\xc3\xa3'
p858
(dp859
S'entre'
p860
F0.9999719652368938
sg5
F2.8034763106251752e-05
ssS'M'
(dp861
g5
F4.377325454147516e-05
sS'.'
F0.99995622674545848
ssg548
(dp862
S'cadeia'
p863
F0.3868678000942144
sg243
F0.5025801892852555
sg5
F1.0706179606869085e-05
sS'linda'
p864
F0.1105413044409233
ssS'esse'
p865
(dp866
g71
F0.99994943877035092
sg5
F5.0561229649105063e-05
ssS'Filha'
p867
(dp868
g595
F0.99995483900103865
sg5
F4.5160998961297026e-05
ssg136
(dp869
g5
F0.00010899182561307902
sS'.'
F0.99989100817438692
ssg746
(dp870
g5
F1
ssS'm'
(dp871
g5
F9.9552015928322543e-05
sS'.'
F0.99990044798407163
ssg427
(dp872
g430
F0.99998574991093692
sg5
F1.4250089063056644e-05
ssg396
(dp873
S'de'
p874
F0.99989166937493235
sg5
F0.00010833062506770663
ssg282
(dp875
g814
F0.99998574991093692
sg5
F1.4250089063056644e-05
ssS'Blue'
p876
(dp877
g5
F0.00010933741526350318
sS'.'
F0.99989066258473647
ssS'Charmes'
p878
(dp879
g5
F0.00010949304719150334
sS'.'
F0.99989050695280846
ssg337
(dp880
S'em'
p881
F0.99997232676555237
sg5
F2.767323444764224e-05
ssg30
(dp882
g5
F0.00010899182561307902
sS'.'
F0.99989100817438692
ssg642
(dp883
g5
F5.585344057193923e-05
sS'.'
F0.99994414655942809
ssg643
(dp884
S'aqui'
p885
F0.99996143760604661
sg5
F3.8562393953416629e-05
ssg221
(dp886
S'!'
F0.9999460014039635
sg5
F5.3998596036503052e-05
ssg364
(dp887
S'20'
p888
F0.9999121419785626
sg5
F8.7858021437357231e-05
ssg803
(dp889
S'a'
F0.99990941208442796
sg5
F9.0587915572062683e-05
ssg646
(dp890
S'e'
F0.99989100817438692
sg5
F0.00010899182561307902
ssg707
(dp891
S'!'
F0.99990141955835965
sg5
F9.8580441640378546e-05
ssg550
(dp892
g791
F0.27035035035035038
sS'ir\xc3\xa1'
p893
F0.19796796796796798
sS'ao'
p894
F0.097557557557557559
sS'q'
F0.30244244244244245
sS'o'
F0.13167167167167168
sg5
F1.001001001001001e-05
ssS'Ser\xc3\xa1'
p895
(dp896
S'amor'
p897
F0.99996417054819065
sg5
F3.5829451809387319e-05
ssS'8'
(dp898
g5
F8.5260214173657999e-06
sS'7'
F0.85130618648114043
sS'.'
F0.1486852874974422
ssg648
(dp899
S'!'
F0.99989977951493281
sg5
F0.00010022048506714773
ssS'porque'
p900
(dp901
S'amanh\xc3\xa3'
p902
F0.49998870949531443
sg345
F0.49998870949531443
sg5
F2.2581009371118888e-05
ssg340
(dp903
S'seu'
p904
F0.17150403977625855
sS'mundo'
p905
F0.14341205717837166
sg227
F0.68506836544437544
sg5
F1.5537600994406463e-05
ssS'mudesuacor/app'
p906
(dp907
g124
F0.99993146929824561
sg5
F6.8530701754385961e-05
ssS'meio'
p908
(dp909
S'de'
p910
F0.99996667666366756
sg5
F3.3323336332433603e-05
ssS'H'
(dp911
g5
F0.00010896807235480004
sS'.'
F0.99989103192764517
ssg574
(dp912
g858
F0.11542095691736184
sS'amanh\xc3\xa3'
p913
F0.097746526272190118
sS'15'
p914
F0.071649074211899019
sS'ser'
p915
F0.029867263796216598
sS'sacanagem'
p916
F0.078732437207556447
sg43
F0.059734527592433195
sg592
F0.071649074211899019
sS'1'
F0.069471320307797846
sS'Leticia'
p917
F0.029867263796216598
sg190
F0.090310451277205744
sS'amor'
p918
F0.046153497673395161
sS'tanta'
p919
F0.097102584181675805
sg5
F3.2358899020819714e-06
sS'Sa\xc3\xbade'
p920
F0.036918267892853213
sS'Deus'
p921
F0.036918267892853213
sS'curti'
p922
F0.031536982985690895
sS'10'
p923
F0.036918267892853213
ssS'da'
p924
(dp925
S'tarde'
p926
F0.46485174365270898
sg104
F0.09509999012094783
sg284
F0.10660202943957549
sS'comporta'
p927
F0.064736017612938734
sS'escola'
p928
F0.12607787515700636
sg2
F0.077889269938044237
sS'cv'
p929
F0.064736017612938734
sg5
F7.05646583964887e-06
ssg651
(dp930
S'bonito'
p931
F0.99996689618644063
sg5
F3.3103813559322034e-05
ssg371
(dp932
g5
F1.7681902572716824e-05
sS'.'
F0.99998231809742733
ssg914
(dp933
g5
F2.287648983140027e-05
sS'coment\xc3\xa1rios'
p934
F0.25251069475899618
sS'comentarios'
p935
F0.24093519090430765
sS'anos'
p936
F0.50653123784686482
ssg676
(dp937
g5
F1
ssg916
(dp938
S'Curta'
p939
F0.99992531182313837
sg5
F7.468817686160281e-05
ssg656
(dp940
g5
F1
ssg659
(dp941
g5
F1
ssg660
(dp942
g5
F7.8155529503712388e-05
sS'.'
F0.99992184447049626
ssg661
(dp943
g5
F5.852059925093633e-05
sS'.'
F0.99994147940074907
ssS'x'
(dp944
g5
F1
ssg922
(dp945
S'ai'
p946
F0.99989740432953733
sg5
F0.00010259567046270647
ssg663
(dp947
g5
F9.225943352707814e-05
sS'.'
F0.99990774056647291
ssS'seu'
p948
(dp949
S'amor'
p950
F0.20850806603951794
sS'www'
p951
F0.26661377460425401
sS'pedido'
p952
F0.17505383656352713
sS'desejo'
p953
F0.34980543277041065
sg5
F1.8890022290226302e-05
ssS'ser'
p954
(dp955
S'tarde'
p956
F0.7057661046122462
sg5
F3.1874541803461572e-05
sS'torturado'
p957
F0.29420202084595032
ssg463
(dp958
g5
F4.257493188010899e-05
sS'F'
F0.99995742506811991
ssg697
(dp959
S'em'
p960
F0.99990517731841455
sg5
F9.4822681585435235e-05
ssg668
(dp961
S'ben\xc3\xa7\xc3\xa3o'
p962
F0.31328977142711856
sS'garota'
p963
F0.68668480333579107
sg5
F2.5425237090335867e-05
ssg670
(dp964
g5
F1
ssS'sem'
p965
(dp966
S'voc\xc3\xaa'
p967
F0.99989939637826963
sg5
F0.00010060362173038229
ssg359
(dp968
S'hora'
p969
F0.99989210185584809
sg5
F0.00010789814415192059
ssg679
(dp970
g454
F0.99990597085096378
sg5
F9.4029149036201217e-05
ssg674
(dp971
S'RECOMENDO'
p972
F0.99993412384716729
sg5
F6.5876152832674566e-05
ssg367
(dp973
S'\xc3\xa9'
p974
F0.99993475991649272
sg5
F6.5240083507306883e-05
ssS'Talvez'
p975
(dp976
g528
F0.99998231809742733
sg5
F1.7681902572716824e-05
ssS'favor'
p977
(dp978
S'envie'
p979
F0.99991885092915689
sg5
F8.1149070843138842e-05
ssS'3'
(dp980
g828
F0.035124262084865639
sS'anos'
p981
F0.030576346186428009
sS'3'
F0.35533209087858825
sS'2'
F0.33170219622147584
sS'Curta'
p982
F0.050917390047738167
sS'.'
F0.19634439250939315
sg5
F3.322071510911344e-06
ssS'ira'
p983
(dp984
g401
F0.33332129572785379
sS'te'
p985
F0.33332129572785379
sS'ajudar'
p986
F0.33332129572785379
sg5
F3.6112816438554041e-05
ssg295
(dp987
S'um'
p988
F0.99996165644171775
sg5
F3.8343558282208591e-05
ssg678
(dp989
S'o'
F0.9999547039905784
sg5
F4.5296009421569957e-05
ssS'C'
(dp990
g5
F2.0653902554887748e-05
sS'.'
F0.9999793460974451
ssg609
(dp991
g794
F0.99996165644171775
sg5
F3.8343558282208591e-05
ssS'S'
(dp992
S'2'
F0.21241990199773841
sg5
F1.8846588767433094e-05
sS'.'
F0.7875612514134942
ssS'Saudades'
p993
(dp994
g5
F6.6190097961344984e-05
sS'da'
p995
F0.99993380990203862
ssg474
(dp996
g5
F1
ssg972
(dp997
g312
F0.99993412384716729
sg5
F6.5876152832674566e-05
ssg684
(dp998
g5
F1.0928125717158251e-05
sS'.'
F0.99998907187428288
ssg885
(dp999
S'www'
p1000
F0.47885581326636134
sS'facebook'
p1001
F0.27821687102969417
sS'Dope'
p1002
F0.24290884916531244
sg5
F1.8466538631998818e-05
ssg781
(dp1003
g5
F1.7159133806925426e-05
sg850
F0.37993754075294278
sS'.'
F0.62004530011325032
ssg687
(dp1004
g5
F6.1954030109658632e-05
sS'.'
F0.99993804596989033
ssS's'
(dp1005
S'2'
F0.99994828566995919
sg5
F5.1714330040854319e-05
ssg689
(dp1006
S'MAIS'
p1007
F0.99994038748137104
sg5
F5.9612518628912071e-05
ssg690
(dp1008
S'!'
F0.0074511643650550935
sg906
F0.010830836745419294
sg845
F0.013739151348157473
sS'.'
F0.96124771001772602
sS'3'
F0.0067303952279293214
sg5
F7.4229571279688116e-07
ssS'crer'
p1009
(dp1010
S'em'
p1011
F0.99991885092915689
sg5
F8.1149070843138842e-05
ssg770
(dp1012
g839
F0.99993475991649272
sg5
F6.5240083507306883e-05
ssg293
(dp1013
S'escolheu'
p1014
F0.031496107927956721
sS'vai'
p1015
F0.083859314721391562
sS'colar'
p1016
F0.058791973885452098
sS'ama'
p1017
F0.13394834158924374
sg203
F0.037533955760494897
sS'receber\xc3\xa1'
p1018
F0.029764078800191749
sS','
F0.11398577852854566
sS'nao'
p1019
F0.026337115072933549
sS'copiar'
p1020
F0.038455612116784992
sS'n\xc3\xa3o'
p1021
F0.083859314721391562
sS'leu'
p1022
F0.026337115072933549
sg983
F0.026337115072933549
sS'ter\xc3\xa1'
p1023
F0.038455612116784992
sg1009
F0.035159905951103708
sS'tamb\xc3\xa9m'
p1024
F0.23567580523660603
sg5
F2.8534252516721074e-06
ssg640
(dp1025
g5
F1
ssS'por'
p1026
(dp1027
S'dentro'
p1028
F0.19146380124472329
sS'10'
p1029
F0.60292326431181487
sg5
F1.6685298583418149e-05
sg977
F0.20559624914487845
ssg778
(dp1030
S'de'
p1031
F0.99991235758106922
sg5
F8.7642418930762488e-05
ssg963
(dp1032
g262
F0.99996297530452816
sg5
F3.7024695471879742e-05
ssg698
(dp1033
g5
F8.734539864439941e-06
sS'.'
F0.99999126546013561
ssS'Deus'
p1034
(dp1035
S'!'
F0.33978822540823023
sg81
F0.22093292230997644
sS'para'
p1036
F0.053859480996464128
sS'.'
F0.16380665536824515
sg546
F0.22160799512814583
sg5
F4.72078893824736e-06
ssg699
(dp1037
S'Meu'
p1038
F0.10516069382227315
sS'essa'
p1039
F0.067227054901552244
sS'.'
F0.083817324721325137
sS'Um'
p1040
F0.11633373268048755
sg993
F0.098363110740702156
sS'Amar'
p1041
F0.098363110740702156
sS'Eu'
p1042
F0.14345244296280862
sg581
F0.28727601833524324
sg5
F6.511094905719346e-06
ssS'contrario'
p1043
(dp1044
g5
F2.2910032303145547e-05
sS'nao'
p1045
F0.22328117482645651
sS'.'
F0.77669591514124037
ssg700
(dp1046
g5
F1
ssg685
(dp1047
g818
F0.99995649147232857
sg5
F4.3508527671423602e-05
ssg701
(dp1048
S'que'
p1049
F0.99997732014877982
sg5
F2.2679851220175995e-05
ssS'.'
(dp1050
g5
F1
ssg962
(dp1051
S'est\xc3\xa1'
p1052
F0.99991885092915689
sg5
F8.1149070843138842e-05
ssg470
(dp1053
S';'
F0.49998132725846811
sS','
F0.49998132725846811
sg5
F3.7345483063823428e-05
ssS'Kaxeta'
p1054
(dp1055
g5
F0.00010899182561307902
sS'.'
F0.99989100817438692
ssg264
(dp1056
g173
F0.99996297530452816
sg5
F3.7024695471879742e-05
ssg692
(dp1057
g5
F5.3089827988957317e-05
sS'no'
p1058
F0.99994691017201109
ssg399
(dp1059
g565
F0.99998255955910564
sg5
F1.7440440894345808e-05
ssg986
(dp1060
S'a'
F0.49997291587671305
sS'o'
F0.49997291587671305
sg5
F5.4168246573858405e-05
ssg708
(dp1061
g975
F0.99996776065510351
sg5
F3.2239344896511701e-05
ssg181
(dp1062
S'mente'
p1063
F0.99989166937493235
sg5
F0.00010833062506770663
ssg116
(dp1064
S'isso'
p1065
F0.9999460014039635
sg5
F5.3998596036503052e-05
ssg130
(dp1066
S'e'
F0.99989100817438692
sg5
F0.00010899182561307902
ssS'c'
(dp1067
g5
F1
ssg713
(dp1068
g612
F0.99992808342322903
sg5
F7.1916576770945708e-05
ssg745
(dp1069
S'de'
p1070
F0.99990414110429449
sg5
F9.5858895705521475e-05
ssg905
(dp1071
S'se'
p1072
F0.99989166937493235
sg5
F0.00010833062506770663
ssS'suas'
p1073
(dp1074
S'lutas'
p1075
F0.99997863293519373
sg5
F2.1367064806307558e-05
ssg719
(dp1076
g5
F7.8926598263614833e-05
sS'.'
F0.99992107340173642
ssg726
(dp1077
S'Quem'
p1078
F0.99994403402731136
sg5
F5.596597268860533e-05
ssg681
(dp1079
g5
F0.00010896807235480004
sS'.'
F0.99989103192764517
ssS'Cole'
p1080
(dp1081
S'isso'
p1082
F0.99990941208442796
sg5
F9.0587915572062683e-05
ssg920
(dp1083
g5
F1
ssg783
(dp1084
S'em'
p1085
F0.049532045902795967
sS'e'
F0.22451641179960555
sS','
F0.058998027697751358
sS'.'
F0.31677098310447854
sg379
F0.27814272199090284
sg5
F5.3449925437354019e-06
sg501
F0.072034464511922011
ssg426
(dp1086
S'rejeitar'
p1087
F0.11653134096185347
sS'n\xc3\xa3o'
p1088
F0.057426022602731656
sg788
F0.13839164712398505
sS'ama'
p1089
F0.21017122924449369
sg841
F0.21291702511283689
sS'estiver'
p1090
F0.21017122924449369
sS'ira'
p1091
F0.054385613443793675
sg5
F5.8922658118953063e-06
ssg1078
(dp1092
S'n\xc3\xa3o'
p1093
F0.5495171310819954
sg255
F0.45045211293596604
sg5
F3.075598203850649e-05
ssg90
(dp1094
S'www'
p1095
F0.46501580090855227
sS'uma'
p1096
F0.53495951017183485
sg5
F2.4688919612877742e-05
ssg627
(dp1097
S'Frases'
p1098
F0.99993475991649272
sg5
F6.5240083507306883e-05
ssS'seguida'
p1099
(dp1100
S','
F0.99997732014877982
sg5
F2.2679851220175995e-05
ssg100
(dp1101
g5
F9.5731339568634576e-06
sS'que'
p1102
F0.32454838740558495
sg588
F0.49816674484726065
sg219
F0.17727529461319752
ssS'convidada'
p1103
(dp1104
S'!'
F0.99993172663344032
sg5
F6.8273366559705063e-05
ssg451
(dp1105
S'Silly'
p1106
F0.4788822298663073
sS'que'
p1107
F0.52110003900847546
sg5
F1.7731125217206284e-05
ssg1002
(dp1108
S'Store'
p1109
F0.99992398327632082
sg5
F7.6016723679209425e-05
ssg570
(dp1110
S'ir\xc3\xa1'
p1111
F0.99997050408518418
sg5
F2.9495914815798013e-05
ssg395
(dp1112
S'todos'
p1113
F0.99989166937493235
sg5
F0.00010833062506770663
ssS'MODA'
p1114
(dp1115
g215
F0.99992594238317412
sg5
F7.4057616825890548e-05
ssg735
(dp1116
g5
F1
ssg1028
(dp1117
g5
F8.7138375740676194e-05
sS'das'
p1118
F0.9999128616242593
ssS'9'
(dp1119
S'8'
F0.65098872727035639
sS'vai'
p1120
F0.28746438560689536
sg5
F6.5197973646979052e-06
sS'.'
F0.061540367325383524
ssg184
(dp1121
S'SEG\xc3\x9aN'
p1122
F0.99989779231398201
sg5
F0.00010220768601798856
ssg1113
(dp1123
S'estrupadores'
p1124
F0.99989166937493235
sg5
F0.00010833062506770663
ssg740
(dp1125
g5
F1.83123351889833e-05
sS'.'
F0.99998168766481099
ssg688
(dp1126
g5
F1
ssg254
(dp1127
g5
F1.8053800324968405e-05
sg878
F0.16486730456761148
sg1054
F0.16562556418126015
sg821
F0.16562556418126015
sg18
F0.50386351326954326
ssS'I'
(dp1128
g5
F4.4509725374994435e-05
sS'.'
F0.99995549027462505
ssg743
(dp1129
S'?'
F0.99993318634328854
sg5
F6.6813656711431815e-05
ssS'aparecer'
p1130
(dp1131
S'a'
F0.99997732014877982
sg5
F2.2679851220175995e-05
ssS'cole-o'
p1132
(dp1133
S'em'
p1134
F0.99992580501558093
sg5
F7.4194984419053274e-05
ssS'Y'
(dp1135
g5
F1
ssg343
(dp1136
g5
F1
ssg860
(dp1137
S'1'
F0.99998482019521229
sg5
F1.517980478771043e-05
ssS'SIGNO'
p1138
(dp1139
S'?'
F0.99989779231398201
sg5
F0.00010220768601798856
ssS'Estilo'
p1140
(dp1141
S'e'
F0.99992960225272787
sg5
F7.0397747272087292e-05
ssS'espirito'
p1142
(dp1143
S'de'
p1144
F0.99996388718356144
sg5
F3.6112816438554041e-05
ssg863
(dp1145
g601
F0.99997232676555237
sg5
F2.767323444764224e-05
ssS'y'
(dp1146
g5
F1
ssS'Girl'
p1147
(dp1148
S'Ela'
p1149
F0.99996297530452816
sg5
F3.7024695471879742e-05
ssg391
(dp1150
g338
F0.99997732014877982
sg5
F2.2679851220175995e-05
ssg808
(dp1151
S','
F0.99998231809742733
sg5
F1.7681902572716824e-05
ssg590
(dp1152
g212
F0.99994943877035092
sg5
F5.0561229649105063e-05
ssS'onde'
p1153
(dp1154
S'vc'
p1155
F0.9999719652368938
sg5
F2.8034763106251752e-05
ssg1075
(dp1156
g5
F2.1367064806307558e-05
sS'.'
F0.99997863293519373
ssg466
(dp1157
g5
F4.8531909730647903e-05
sS'F'
F0.99995146809026936
ssg1020
(dp1158
S'e'
F0.99992580501558093
sg5
F7.4194984419053274e-05
ssg797
(dp1159
S'o'
F0.99992915338292598
sg5
F7.0846617074034712e-05
ssg641
(dp1160
g5
F1
ssg653
(dp1161
S'Do'
p1162
F0.49997275055861357
sg5
F5.4498882772903156e-05
sS'da'
p1163
F0.49997275055861357
ssS'veja'
p1164
(dp1165
g5
F1
ssg654
(dp1166
g5
F8.1287595512924722e-05
sS'.'
F0.99991871240448704
ssg393
(dp1167
S'amanh\xc3\xa3'
p1168
F0.57552205662552847
sg965
F0.4244352393560234
sg5
F4.2704018448135966e-05
ssS'ela'
p1169
(dp1170
S'vai'
p1171
F0.2729998740078115
sS'que'
p1172
F0.27758598966864056
sS'algo'
p1173
F0.44940153710469949
sg5
F1.2599218848431397e-05
ssS'4'
(dp1174
S'3'
F0.40773424260367114
sS'.'
F0.1321436592686363
sg5
F4.0835494211568692e-06
sg68
F0.19111011291014149
sg924
F0.26900790166812993
ssg647
(dp1175
S'www'
p1176
F0.8837361369318546
sS'agora'
p1177
F0.11625104173344446
sg5
F1.2821334700942368e-05
ssg1041
(dp1178
S'\xc3\xa9'
p1179
F0.99993380990203862
sg5
F6.6190097961344984e-05
ssg831
(dp1180
S'190322544333196'
p1181
F0.99989872392140977
sg5
F0.00010127607859023699
ssS's\xc3\xb3'
p1182
(dp1183
g900
F0.4504893084576102
sS'tem'
p1184
F0.54949034607637692
sg5
F2.0345466012899025e-05
ssg979
(dp1185
S'esta'
p1186
F0.99991885092915689
sg5
F8.1149070843138842e-05
ssg649
(dp1187
g5
F0.00010713520462824084
sS'.'
F0.99989286479537176
ssS'D'
(dp1188
g5
F2.3631723225257586e-05
sS'.'
F0.99997636827677472
ssg1017
(dp1189
S'!'
F0.081761299237660498
sg1169
F0.27690313164718122
sS'vai'
p1190
F0.27690313164718122
sg1034
F0.36442467433664044
sg5
F7.7631313366559538e-06
ssg135
(dp1191
g5
F0.00010826025765941322
sS'.'
F0.99989173974234058
ssg650
(dp1192
S'ou'
p1193
F0.99989565943238734
sg5
F0.00010434056761268782
ssg929
(dp1194
g5
F0.00010899182561307902
sS'.'
F0.99989100817438692
ssS'T'
(dp1195
g5
F2.8468940386038831e-05
sS'.'
F0.999971531059614
ssg652
(dp1196
S'A'
F0.10811935665914221
sg447
F0.080946670428893905
sS'voc\xc3\xaa'
p1197
F0.58263261851015802
sS'Paz'
p1198
F0.077193848758465008
sS'www'
p1199
F0.15110045146726861
sg5
F7.0541760722347626e-06
ssg864
(dp1200
S'pagina'
p1201
F0.99990315707921751
sg5
F9.6842920782490801e-05
ssg919
(dp1202
g457
F0.99996667666366756
sg5
F3.3323336332433603e-05
ssS'ent\xc3\xa3o'
p1203
(dp1204
S'eu'
p1205
F0.99995461353424409
sg5
F4.538646575591159e-05
ssS'Os'
p1206
(dp1207
g437
F0.99989100817438692
sg5
F0.00010899182561307902
ssg704
(dp1208
g5
F1
ssg775
(dp1209
g5
F3.4025178632187818e-05
sS'.'
F0.99996597482136784
ssS'd'
(dp1210
g5
F1
ssg1007
(dp1211
g79
F0.55401790137728313
sg1114
F0.44594907025134589
sg5
F3.3028371371007693e-05
ssg658
(dp1212
S'!'
F0.99993688462509467
sg5
F6.3115374905326938e-05
ssg142
(dp1213
g5
F0.00010950503723171266
sS'.'
F0.99989049496276827
ssg957
(dp1214
g5
F0.00010833062506770663
sS'.'
F0.99989166937493235
ssS'5-'
p1215
(dp1216
g1080
F0.99990941208442796
sg5
F9.0587915572062683e-05
ssg150
(dp1217
S'e'
F0.16501298754145502
sS'para'
p1218
F0.12117410087555697
sS'de'
p1219
F0.18927900494408237
sS','
F0.14942115578945941
sS'.'
F0.096731751317404663
sS'3'
F0.20351443549973211
sg801
F0.074859782026327745
sg5
F6.7820059817292759e-06
ssg389
(dp1220
S'SUA'
p1221
F0.9999121419785626
sg5
F8.7858021437357231e-05
ssS'trabalho'
p1222
(dp1223
g5
F2.8034763106251752e-05
sS'.'
F0.9999719652368938
ssg935
(dp1224
S'e'
F0.69059829059829059
sS','
F0.30936819172113289
sg5
F3.3517680576504107e-05
ssg664
(dp1225
g5
F1.4610441790538863e-06
sS'.'
F0.99999853895582091
ssg377
(dp1226
g5
F6.464959917248513e-05
sS'.'
F0.99993535040082748
ssg578
(dp1227
g5
F1
ssS'Tchau'
p1228
(dp1229
S','
F0.99996265451693622
sg5
F3.7345483063823428e-05
ssS'Confira'
p1230
(dp1231
S'!'
F0.81780061738308085
sS'as'
p1232
F0.18218153917527613
sg5
F1.7843441643024108e-05
ssg436
(dp1233
g5
F1
ssg952
(dp1234
S'se'
p1235
F0.99989210185584809
sg5
F0.00010789814415192059
ssg667
(dp1236
S'isso'
p1237
F0.99989210185584809
sg5
F0.00010789814415192059
ssS'Falsidade'
p1238
(dp1239
S'?'
F0.99990315707921751
sg5
F9.6842920782490801e-05
ssS'morrer'
p1240
(dp1241
S'esta'
p1242
F0.99996597482136784
sg5
F3.4025178632187818e-05
ssg672
(dp1243
g5
F1
ssg1087
(dp1244
g865
F0.99994943877035092
sg5
F5.0561229649105063e-05
ssg809
(dp1245
S'o'
F0.99997050408518418
sg5
F2.9495914815798013e-05
ssg673
(dp1246
g5
F8.7519691930684407e-05
sS'.'
F0.99991248030806934
ssS'esque\xc3\xa7a'
p1247
(dp1248
S'de'
p1249
F0.99989740432953733
sg5
F0.00010259567046270647
ssg133
(dp1250
g5
F0.00010897994768962511
sS'.'
F0.99989102005231034
ssS'/'
(dp1251
g5
F6.133464180569185e-05
sS'.'
F0.99993866535819431
ssg1124
(dp1252
S'do'
p1253
F0.99989166937493235
sg5
F0.00010833062506770663
ssg675
(dp1254
g5
F1.3239947569807624e-05
sg411
F0.21383839319996292
sS'Deus'
p1255
F0.59730699466430115
sS'lindo'
p1256
F0.18884137218816613
ssg852
(dp1257
g22
F0.24110044757662971
sg603
F0.16531882995371028
sS','
F0.2371171250041037
sg508
F0.24230419890349197
sS'boa'
p1258
F0.11414845536818376
sg5
F1.0943193880565982e-05
ssg677
(dp1259
g5
F0.00010573059843518714
sS'.'
F0.99989426940156478
ssg742
(dp1260
S'vc'
p1261
F0.99989740432953733
sg5
F0.00010259567046270647
ssg847
(dp1262
g503
F0.99994597514856831
sg5
F5.4024851431658565e-05
ssS'Nego'
p1263
(dp1264
g876
F0.4991812227074236
sg5
F5.4585152838427949e-05
sS'.'
F0.500764192139738
ssg913
(dp1265
S'pode'
p1266
F0.33636653652756465
sg5
F1.5191334862594377e-05
sS'entre'
p1267
F0.45888465219438834
sS'.'
F0.2047336199431844
ssg680
(dp1268
g5
F0.00010927767457108513
sS'.'
F0.99989072232542886
ssg682
(dp1269
S'Do'
p1270
F0.49997275055861357
sg5
F5.4498882772903156e-05
sg28
F0.49997275055861357
ssS'O'
(dp1271
S'!'
F0.028830198815511857
sg1142
F0.019994194535064576
sS'o'
F0.089497307390703454
sS'.'
F0.71551488841809741
sS'Bonde'
p1272
F0.019872886312533304
sS'O'
F0.12628835830982987
sg5
F2.1662182594869529e-06
ssg1040
(dp1273
S'amor'
p1274
F0.99994403402731136
sg5
F5.596597268860533e-05
ssg683
(dp1275
S'!'
F0.23090210494845589
sS'www'
p1276
F0.12722702660805438
sg5
F1.1072848268760173e-05
sS'Curta'
p1277
F0.10999767470186356
sS'.'
F0.53186212089335738
ssS'CIUMENTA'
p1278
(dp1279
S'o'
F0.99992334227673441
sg5
F7.6657723265619008e-05
ssg94
(dp1280
g1103
F0.99993172663344032
sg5
F6.8273366559705063e-05
ssg475
(dp1281
g101
F0.99995483900103865
sg5
F4.5160998961297026e-05
ssg392
(dp1282
g1215
F0.4999773519952892
sg479
F0.4999773519952892
sg5
F4.5296009421569957e-05
ssg286
(dp1283
g5
F1
ssS'o'
(dp1284
S'!'
F0.013227285107943899
sS'seu'
p1285
F0.032001981902818326
sS'pr\xc3\xb3prio'
p1286
F0.012633261749412478
sg8
F0.031273824237521744
sg20
F0.046402257836249385
sg823
F0.030155582108673425
sg630
F0.03021580567497615
sS'espirito'
p1287
F0.012633261749412478
sS'O'
F0.049514721240167474
sS'.'
F0.40582471383540625
sg151
F0.018446204615041383
sS'que'
p1288
F0.018004108889682745
sS'o'
F0.12554971113218935
sg5
F1.368717415971016e-06
sg97
F0.096048375948350084
sS'desejo'
p1289
F0.046402257836249385
sS'?'
F0.031665277418489457
ssg686
(dp1290
g5
F2.1782695826435478e-05
sS'.'
F0.99997821730417358
ssg1173
(dp1291
g635
F0.9999719652368938
sg5
F2.8034763106251752e-05
ssg229
(dp1292
g207
F0.82144387517466233
sg440
F0.1785374941779227
sg5
F1.863064741499767e-05
ssg693
(dp1293
S'2'
F0.99991041834632266
sg5
F8.9581653677326889e-05
ssg691
(dp1294
g146
F0.99989100817438692
sg5
F0.00010899182561307902
ssg516
(dp1295
g776
F0.3086781937146198
sS'dez'
p1296
F0.047180611033898485
sS'20'
p1297
F0.1174841675214513
sg305
F0.063490952119224078
sS'sua'
p1298
F0.043137158800897614
sg1230
F0.080459448200051117
sS'outros'
p1299
F0.038642100214600537
sS'baixo'
p1300
F0.034119035032750211
sg1099
F0.1543548505673086
sS'1'
F0.032442140123999201
sS'15'
p1301
F0.036870683045857298
sS'Jesus'
p1302
F0.043137158800897614
sg5
F3.5008244441565988e-06
ssg1221
(dp1303
g325
F0.9999121419785626
sg5
F8.7858021437357231e-05
ssg694
(dp1304
g247
F0.99993874050477827
sg5
F6.125949522175937e-05
ssg161
(dp1305
g1140
F0.4852584469269926
sS'aqui'
p1306
F0.51470738956646511
sg5
F3.4163506542311505e-05
ssg1149
(dp1307
g1182
F0.99996297530452816
sg5
F3.7024695471879742e-05
ssg655
(dp1308
S'!'
F0.9998914105766098
sg5
F0.0001085894233901618
ssg917
(dp1309
S'Agora'
p1310
F0.99989166937493235
sg5
F0.00010833062506770663
ssg1109
(dp1311
g5
F1
ssS'At\xc3\xa9'
p1312
(dp1313
g252
F0.99996417054819065
sg5
F3.5829451809387319e-05
ssg1014
(dp1314
g5
F9.0587915572062683e-05
sS'.'
F0.99990941208442796
ssg1190
(dp1315
g272
F0.17278143770587095
sg1130
F0.2135777950009688
sg572
F0.36631466770005811
sg1240
F0.14236097655493121
sg162
F0.10496027901569463
sg5
F4.8440224762642899e-06
ssS'NO'
p1316
(dp1317
g269
F0.9999121419785626
sg5
F8.7858021437357231e-05
ssg696
(dp1318
g5
F1
ssg1122
(dp1319
S'TU'
p1320
F0.99989779231398201
sg5
F0.00010220768601798856
ssg327
(dp1321
g5
F8.7858021437357231e-05
sg1316
F0.9999121419785626
ssg703
(dp1322
g492
F0.99995461353424409
sg5
F4.538646575591159e-05
ssS'Amigos'
p1323
(dp1324
g5
F3.5829451809387319e-05
sg1312
F0.99996417054819065
ssg705
(dp1325
S'!'
F0.99994014126661079
sg5
F5.9858733389201482e-05
ssg706
(dp1326
g5
F7.726781023025808e-05
sS'.'
F0.99992273218976979
ssg473
(dp1327
g772
F0.99996597482136784
sg5
F3.4025178632187818e-05
ssg594
(dp1328
g867
F0.99995483900103865
sg5
F4.5160998961297026e-05
ssS'J'
(dp1329
g5
F6.091989034419738e-05
sS'.'
F0.99993908010965582
ssg1300
(dp1330
S'!'
F0.99989740432953733
sg5
F0.00010259567046270647
ssg1106
(dp1331
g1147
F0.99996297530452816
sg5
F3.7024695471879742e-05
ssg711
(dp1332
g5
F0.00010831889081455805
sS'.'
F0.99989168110918547
ssg780
(dp1333
g1026
F0.99997232676555237
sg5
F2.767323444764224e-05
ssg1063
(dp1334
S'para'
p1335
F0.99989166937493235
sg5
F0.00010833062506770663
ssg277
(dp1336
S'!'
F0.57754639595749024
sg5
F2.2659808298021798e-06
sS'.'
F0.42245133806168
ssg722
(dp1337
S'q'
F0.99996690385570086
sg5
F3.3096144299189144e-05
ssg662
(dp1338
g5
F1
ssg988
(dp1339
S'amor'
p1340
F0.45793149318257398
sS'g'
F0.54204772198204187
sg5
F2.0784835384103757e-05
ssg739
(dp1341
g5
F1
ssg1201
(dp1342
g1238
F0.99990315707921751
sg5
F9.6842920782490801e-05
ssg476
(dp1343
S';'
F0.67128253461900966
sS'www'
p1344
F0.3286812151091133
sg5
F3.6250271877039077e-05
ssg927
(dp1345
g5
F0.00010899182561307902
sS'.'
F0.99989100817438692
ssg1258
(dp1346
g524
F0.99990414110429449
sg5
F9.5858895705521475e-05
ssg946
(dp1347
S'em'
p1348
F0.99989740432953733
sg5
F0.00010259567046270647
ssg584
(dp1349
g1043
F0.99997708996769685
sg5
F2.2910032303145547e-05
ssg1232
(dp1350
g557
F0.99990206639898149
sg5
F9.7933601018509455e-05
ssg1090
(dp1351
S'na'
p1352
F0.9999719652368938
sg5
F2.8034763106251752e-05
ssg731
(dp1353
g768
F0.99993475991649272
sg5
F6.5240083507306883e-05
ssg926
(dp1354
g5
F1.1361183380860951e-05
sg1153
F0.40524205001192926
sS'.'
F0.59474658880468989
ssg733
(dp1355
g5
F6.1338403974728575e-05
sS'.'
F0.99993866159602529
ssg468
(dp1356
g908
F0.20246127273708642
sS'site'
p1357
F0.12707804825389971
sS'dia'
p1358
F0.074472391644626768
sS'doubt'
p1359
F0.080996653532682025
sg47
F0.14939007934366061
sg1222
F0.24065552976736654
sS'1O'
p1360
F0.12493927781076267
sg5
F6.7469099152588111e-06
ssg1352
(dp1361
S'p\xc3\xa1gina'
p1362
F0.26941668032115351
sg5
F2.0481730296575454e-05
sg41
F0.73056283794854993
ssg1320
(dp1363
g1138
F0.99989779231398201
sg5
F0.00010220768601798856
ssg84
(dp1364
g1073
F0.99997863293519373
sg5
F2.1367064806307558e-05
ssg1045
(dp1365
g1247
F0.51356905727986513
sS'passar'
p1366
F0.48637824735205776
sg5
F5.2695368077146022e-05
ssg644
(dp1367
g5
F4.7379891973846301e-05
sS'.'
F0.9999526201080261
ssg634
(dp1368
g526
F0.99990941208442796
sg5
F9.0587915572062683e-05
ssS'5'
(dp1369
g5
F7.9844781744289097e-06
sS'4'
F0.79723417676037778
sS'.'
F0.20275783876144773
ssg671
(dp1370
S'?'
F0.99991569718428597
sg5
F8.4302815714044847e-05
ssg134
(dp1371
g5
F0.00010110201193003741
sS'.'
F0.99989889798806997
ssg1286
(dp1372
S'espirito'
p1373
F0.99989166937493235
sg5
F0.00010833062506770663
ssg106
(dp1374
S'se'
p1375
F0.99991885092915689
sg5
F8.1149070843138842e-05
ssg1362
(dp1376
S'aqui'
p1377
F0.99992398327632082
sg5
F7.6016723679209425e-05
ssS'E'
(dp1378
g1278
F0.095603864026151078
sS'no'
p1379
F0.21993872674768025
sS'verdade'
p1380
F0.1222753191926003
sg5
F7.3293364018821735e-06
sS'.'
F0.56217476069716643
ssg741
(dp1381
S'e'
F0.99992974074334295
sg5
F7.0259256657064572e-05
ssg810
(dp1382
g405
F0.99996597482136784
sg5
F3.4025178632187818e-05
ssg1018
(dp1383
S'uma'
p1384
F0.99990414110429449
sg5
F9.5858895705521475e-05
ssg394
(dp1385
g331
F0.9999719652368938
sg5
F2.8034763106251752e-05
ssS'U'
(dp1386
g5
F3.3553669093715399e-05
sS'.'
F0.99996644633090626
ssg744
(dp1387
S'a'
F0.99998902027954373
sg5
F1.0979720456317181e-05
ssS'N'
(dp1388
g5
F8.7100426792091282e-05
sS'.'
F0.99991289957320795
ssg1024
(dp1389
g1323
F0.33790181003692715
sg5
F1.2107270415884739e-05
sg826
F0.16209213632786487
sg1228
F0.16209213632786487
sg895
F0.33790181003692715
ssS'e'
(dp1390
g948
F0.038365200745011672
sS'vc'
p1391
F0.019122518785854723
sg1164
F0.029485556593746957
sg230
F0.023773662304191
sg185
F0.02942754678594588
sS'ela'
p1392
F0.04489130412263273
sS','
F0.09134680127704449
sS'.'
F0.12913811928059551
sS'1'
F0.05040845120028508
sS'2'
F0.024600302065356336
sS'4'
F0.13648050352513172
sg5
F2.0717788500384315e-06
sg541
F0.019122518785854723
sS'O'
F0.019006499170252572
sg1203
F0.045645431624046724
sg1206
F0.019006499170252572
sS'bem'
p1393
F0.022868294946724207
sS'ir\xc3\xa1'
p1394
F0.019122518785854723
sS'o'
F0.14538500902259688
sS'Jesus'
p1395
F0.045873327297550948
sg1263
F0.019006499170252572
sg1132
F0.027921363561967942
ssg167
(dp1396
g5
F0.00010899182561307902
sS'da'
p1397
F0.99989100817438692
ssg747
(dp1398
S'!'
F0.6833938388134011
sg5
F2.0744736023234104e-05
sS'.'
F0.31658541645057564
ssg1266
(dp1399
g954
F0.99995483900103865
sg5
F4.5160998961297026e-05
ssg748
(dp1400
g5
F3.1118717908822155e-05
sS'.'
F0.99996888128209116
ssS'u'
(dp1401
g5
F1.7970743629371384e-05
sS'.'
F0.99998202925637059
ssg751
(dp1402
g5
F9.2824654228162995e-05
sS'.'
F0.99990717534577178
ss.