(dp1
S'Completamente'
p2
(dp3
S'relevante'
p4
F0.5
sS'ooothers'
p5
F0.5
ssS'1200'
p6
(dp7
S'2000'
p8
F0.99999994848548612
sg5
F5.151451382791216e-08
ssS'vezes'
p9
(dp10
S'de'
p11
F0.5
sg5
F0.5
ssS'Rsrsrs'
p12
(dp13
g5
F0.00022158209616662973
sS'.'
F0.99977841790383337
ssS'@claudinhasaraiva'
p14
(dp15
S'Galera'
p16
F0.5
sg5
F0.5
ssS'hehhe'
p17
(dp18
S'Clientes'
p19
F0.5
sg5
F0.5
ssS'@lindaloveh'
p20
(dp21
S'@sebastianjus'
p22
F0.5
sg5
F0.5
ssS'acontece'
p23
(dp24
g5
F0.5
sS'no'
p25
F0.5
ssS'bike'
p26
(dp27
g5
F0.5
sS'.'
F0.5
ssS'@cuecasnacozinha'
p28
(dp29
S','
F0.5
sg5
F0.5
ssS'@'
(dp30
g5
F0.00043327556325823221
sS'.'
F0.99956672443674177
ssS'ENTRE'
p31
(dp32
S'EM'
p33
F0.99960000000000004
sg5
F0.00040000000000000002
ssS'casal'
p34
(dp35
g5
F0.33333333333333331
sS'.'
F0.66666666666666663
ssS'GD'
p36
(dp37
g5
F1
ssS'GB'
p38
(dp39
S'Curta'
p40
F0.5
sg5
F0.5
ssS'Gv'
p41
(dp42
g5
F0.5
sS'.'
F0.5
ssS'@shockabsorberes'
p43
(dp44
S'@rbksportsclub'
p45
F0.5
sg5
F0.5
ssS'9909-6273'
p46
(dp47
S'!'
F0.99960000000000004
sg5
F0.00040000000000000002
ssS'curtam'
p48
(dp49
S'nossas'
p50
F0.5
sg5
F0.5
ssS'@vemsersaudavelcomigo'
p51
(dp52
g5
F1
ssS'est\xc3\xa3o'
p53
(dp54
S'lindos'
p55
F0.5
sg5
F0.5
ssS'@wandinhaclfernandes'
p56
(dp57
g5
F1
ssS'Melody'
p58
(dp59
g5
F0.5
sS'Joarez'
p60
F0.5
ssS'enjoy'
p61
(dp62
S'meninas'
p63
F0.5
sg5
F0.5
ssS'GANHAR'
p64
(dp65
S'um'
p66
F0.5
sg5
F0.5
ssS'matheus'
p67
(dp68
S'?'
F0.5
sg5
F0.5
ssS'antioxidantes'
p69
(dp70
S','
F0.5
sg5
F0.5
ssS'@crlzn'
p71
(dp72
S'deu'
p73
F0.5
sg5
F0.5
ssS'Curitiba'
p74
(dp75
S'e'
F0.5
sg5
F0.5
ssS'@ruulk'
p76
(dp77
g5
F0.5
sS'Rs'
p78
F0.5
ssS'blue'
p79
(dp80
g5
F1
ssS'nem'
p81
(dp82
S'vi'
p83
F0.33333333333333331
sS'chegou'
p84
F0.33333333333333331
sg5
F0.33333333333333331
ssS'tipo'
p85
(dp86
S'de'
p87
F0.99933730947647448
sg5
F0.00066269052352551359
ssS'mexer'
p88
(dp89
g5
F1
ssS'gordinho'
p90
(dp91
S'vai'
p92
F0.5
sg5
F0.5
ssS'vitex'
p93
(dp94
S','
F0.99933199732798927
sg5
F0.0006680026720106881
ssS'sobre'
p95
(dp96
S'a'
F0.33333333333333331
sS'o'
F0.33333333333333331
sg5
F0.33333333333333331
ssS'amisstoreonline'
p97
(dp98
g5
F0.00034270047978067172
sS'.'
F0.99965729952021931
ssS'net'
p99
(dp100
g5
F0.00028066236317709798
sS'.'
F0.99971933763682286
ssS'Lispector'
p101
(dp102
g5
F1
ssS'cambiar'
p103
(dp104
S'de'
p105
F0.5
sg5
F0.5
ssS'rainha'
p106
(dp107
S','
F0.5
sg5
F0.5
ssS'meu'
p108
(dp109
S'canal'
p110
F0.16666666666666666
sS'recadinho'
p111
F0.083333333333333329
sS'melhor'
p112
F0.083333333333333329
sS'irm\xc3\xa3o'
p113
F0.083333333333333329
sS'porquinho'
p114
F0.083333333333333329
sS'poeta'
p115
F0.083333333333333329
sS'f\xc3\xa3'
p116
F0.083333333333333329
sS'lindo'
p117
F0.083333333333333329
sS'amor'
p118
F0.16666666666666666
sg5
F0.083333333333333329
ssS'acessa'
p119
(dp120
S'o'
F0.99969696969696975
sg5
F0.00030303030303030303
ssS'acesse'
p121
(dp122
S'www'
p123
F0.99992183225201281
sg5
F7.8167747987180493e-05
ssS'acesso'
p124
(dp125
S','
F0.5
sg5
F0.5
ssS'linha'
p126
(dp127
g5
F0.5
sS'.'
F0.5
ssS'@dricavaz'
p128
(dp129
S'pode'
p130
F0.5
sg5
F0.5
ssS'edi\xc3\xa7\xc3\xa3o'
p131
(dp132
S'!'
F0.5
sg5
F0.5
ssS'k'
(dp133
g5
F0.00042069835927639884
sS'.'
F0.99957930164072362
ssS'Hahahha'
p134
(dp135
g5
F1
ssS'credit'
p136
(dp137
S'to'
p138
F0.99970202622169246
sg5
F0.00029797377830750892
ssS'Venda'
p139
(dp140
S'R'
F0.90000000000000002
sg5
F0.10000000000000001
ssS'tracklog'
p141
(dp142
g5
F0.00044563279857397502
sS'.'
F0.99955436720142599
ssS'@grp1782'
p143
(dp144
S'!'
F0.5
sg5
F0.5
ssS'Holanda'
p145
(dp146
S'x'
F0.5
sg5
F0.5
ssS'bro'
p147
(dp148
g5
F1
ssS'lojarocha'
p149
(dp150
g5
F0.00039047247169074581
sS'.'
F0.99960952752830923
ssS'ENTREGA'
p151
(dp152
S'!'
F0.99962990377498151
sg5
F0.00037009622501850479
ssS'insta'
p153
(dp154
S'garanto'
p155
F0.33333333333333331
sg5
F0.33333333333333331
sS'.'
F0.33333333333333331
ssS'lojaelementomar'
p156
(dp157
g5
F0.00047014574518100609
sS'.'
F0.99952985425481899
ssS'outro'
p158
(dp159
S'ai'
p160
F0.25
sS'n\xc3\xadvel'
p161
F0.25
sS'com'
p162
F0.25
sg5
F0.25
ssS'cazamigas'
p163
(dp164
S'tudo'
p165
F0.5
sg5
F0.5
ssS'Severina'
p166
(dp167
S'@glauberfelix'
p168
F0.5
sg5
F0.5
ssS'm/'
p169
(dp170
g5
F1
ssS'trazpramimvioleta'
p171
(dp172
g5
F0.00046772684752104771
sS'.'
F0.99953227315247895
ssS'@josineete'
p173
(dp174
S'olha'
p175
F0.5
sg5
F0.5
ssS'HAUAHAUAHA'
p176
(dp177
S'juro'
p178
F0.5
sg5
F0.5
ssS'ver\xc3\xaddico'
p179
(dp180
S'os'
p181
F0.5
sg5
F0.5
ssS'Galerias'
p182
(dp183
S'irm\xc3\xa3s'
p184
F0.99968857053877291
sg5
F0.0003114294612270321
ssS'Acha'
p185
(dp186
S'Docuras'
p187
F0.5
sg5
F0.5
ssS'seja'
p188
(dp189
S'uma'
p190
F0.5
sg5
F0.5
ssS'encher'
p191
(dp192
S'seu'
p193
F0.99964825888146325
sg5
F0.00035174111853675694
ssS'relax'
p194
(dp195
g5
F1
ssS'Obrigadaaa'
p196
(dp197
S'@rafapmrocha'
p198
F0.5
sg5
F0.5
ssS'nobre'
p199
(dp200
S','
F0.5
sg5
F0.5
ssS'ti'
p201
(dp202
g5
F1
ssS'haha'
p203
(dp204
S'!'
F0.33333333333333331
sS'@ygorr'
p205
F0.33333333333333331
sg5
F0.33333333333333331
ssS'br-'
p206
(dp207
g5
F1
ssS'V'
(dp208
S'i'
F6.3471913678197394e-05
sg5
F6.3471913678197394e-05
sS'E'
F0.64335131704220883
sS'.'
F0.35652173913043478
ssS'90'
p209
(dp210
S'Whats'
p211
F0.20000000000000001
sS'por'
p212
F0.40000000000000002
sS'Sale'
p213
F0.20000000000000001
sg5
F0.20000000000000001
ssS'pouco'
p214
(dp215
S'espa\xc3\xa7o'
p216
F0.25
sg5
F0.25
sS'depois'
p217
F0.25
sS'fotografar'
p218
F0.25
ssS'me'
p219
(dp220
S'ferra'
p221
F0.125
sS'deste'
p222
F0.125
sS'chama'
p223
F0.125
sS'por'
p224
F0.125
sS'to'
p225
F0.125
sS'avise'
p226
F0.125
sS'ws'
p227
F0.125
sg5
F0.125
ssS'melhoras'
p228
(dp229
S'a'
F0.5
sg5
F0.5
ssS'rsss'
p230
(dp231
g5
F1
ssS'ma'
p232
(dp233
S'!'
F0.5
sg5
F0.5
ssS'vou'
p234
(dp235
S'fazer'
p236
F0.33333333333333331
sg5
F0.33333333333333331
sS'no'
p237
F0.33333333333333331
ssS'mi'
p238
(dp239
g5
F0.5
sS'amore'
p240
F0.5
ssS'Taubat\xc3\xa9'
p241
(dp242
S'/'
F0.5
sg5
F0.5
ssS'soninho'
p243
(dp244
S'a'
F0.5
sg5
F0.5
ssS'era'
p245
(dp246
S'um'
p247
F0.5
sg5
F0.5
ssS'vagas'
p248
(dp249
g5
F0.5
sS'limitadas'
p250
F0.5
ssS'uselorenashoes'
p251
(dp252
g5
F0.00044903457566232598
sS'.'
F0.99955096542433763
ssS'desconto'
p253
(dp254
S'em'
p255
F0.33333333333333331
sS'a'
F0.33333333333333331
sg5
F0.33333333333333331
ssS'@cristiano'
p256
(dp257
S'p/'
p258
F0.5
sg5
F0.5
ssS'vodka'
p259
(dp260
g5
F1
ssS'Aturou'
p261
(dp262
S'agente'
p263
F0.5
sg5
F0.5
ssS'comemorou'
p264
(dp265
S'1'
F0.5
sg5
F0.5
ssS'AJUDAR'
p266
(dp267
g5
F0.5
sS'ALGU\xc3\x89M'
p268
F0.5
ssS'Treino'
p269
(dp270
g5
F0.5
sS'divertido'
p271
F0.5
ssS'Abs'
p272
(dp273
S'!'
F0.99958949096880134
sg5
F0.00041050903119868636
ssS'Hahah'
p274
(dp275
g5
F1
ssS'abaixo'
p276
(dp277
S'do'
p278
F0.5
sg5
F0.5
ssS'aaah'
p279
(dp280
S','
F0.5
sg5
F0.5
ssS'@razevedo21'
p281
(dp282
g5
F1
ssS'Mo\xc3\xa7a'
p283
(dp284
S'como'
p285
F0.5
sg5
F0.5
ssS'ONG'
p286
(dp287
S'Carlos'
p288
F0.5
sg5
F0.5
ssS'hihihi'
p289
(dp290
S'e'
F0.5
sg5
F0.5
ssS'siKolarKolou'
p291
(dp292
S'cria'
p293
F0.5
sg5
F0.5
ssS'A'
(dp294
S'C'
F9.1810503121557101e-05
sS'@oumziio'
p295
F9.1810503121557101e-05
sS'M'
F0.0001836210062431142
sS'.'
F0.99926551597502755
sS'PERMANECER'
p296
F9.1810503121557101e-05
sg5
F9.1810503121557101e-05
sS'christmas'
p297
F9.1810503121557101e-05
sg291
F9.1810503121557101e-05
ssS'Sigam'
p298
(dp299
S'a'
F0.33333333333333331
sS'essa'
p300
F0.33333333333333331
sg5
F0.33333333333333331
ssS'cadillac'
p301
(dp302
S'trapezio'
p303
F0.5
sg5
F0.5
ssS'destined'
p304
(dp305
S'to'
p306
F0.5
sg5
F0.5
ssg288
(dp307
S'Daniel'
p308
F0.5
sg5
F0.5
ssS'Somos'
p309
(dp310
g5
F1
ssS'@cheirodemamae'
p311
(dp312
S'A\xc3\xad'
p313
F0.66666666666666663
sg5
F0.33333333333333331
ssS'VIL\xc3\x83O'
p314
(dp315
S'UMA'
p316
F0.5
sg5
F0.5
ssS'passado'
p317
(dp318
g5
F0.33333333333333331
sS'e'
F0.33333333333333331
sS'.'
F0.33333333333333331
ssS'restri\xc3\xa7\xc3\xa3o'
p319
(dp320
S'severa'
p321
F0.5
sg5
F0.5
ssS'boleto'
p322
(dp323
S','
F0.5
sg5
F0.5
ssS'prenda'
p324
(dp325
S'que'
p326
F0.5
sg5
F0.5
ssS'@priscillamachado'
p327
(dp328
S'@mel'
p329
F0.5
sg5
F0.5
ssS'\xc3\xbanico'
p330
(dp331
S'!'
F0.33333333333333331
sS'WhatsApp'
p332
F0.33333333333333331
sg5
F0.33333333333333331
ssS'serpins'
p333
(dp334
S'a'
F0.5
sg5
F0.5
ssS'gostou'
p335
(dp336
S'do'
p337
F0.5
sg5
F0.5
ssS'sereia'
p338
(dp339
S'em'
p340
F0.5
sg5
F0.5
ssS'@paulatheotonio'
p341
(dp342
S'\xc3\xa9'
p343
F0.5
sg5
F0.5
ssS'Cantora'
p344
(dp345
S'Amada'
p346
F0.5
sg5
F0.5
ssS'99821-4576'
p347
(dp348
S'Enviamos'
p349
F0.5
sg5
F0.5
ssS'boshi'
p350
(dp351
S'de'
p352
F0.5
sg5
F0.5
ssS'Tradi\xc3\xa7\xc3\xa3o'
p353
(dp354
S'Em'
p355
F0.5
sg5
F0.5
ssS'somos'
p356
(dp357
S'de'
p358
F0.5
sg5
F0.5
ssS'sequencia'
p359
(dp360
S'Use'
p361
F0.9997555609875336
sg5
F0.00024443901246638962
ssS'pimpolhos'
p362
(dp363
S'e'
F0.5
sg5
F0.5
ssS'@rosanenicolau'
p364
(dp365
S'@fabiulagonzalezlopez'
p366
F0.5
sg5
F0.5
ssS'FERNANDO-PRZ'
p367
(dp368
S'10'
p369
F0.5
sg5
F0.5
ssS'@naahcalixto'
p370
(dp371
g5
F1
ssg113
(dp372
S'Willian'
p373
F0.33333333333333331
sg5
F0.33333333333333331
sS'vo'
p374
F0.33333333333333331
ssS'gente'
p375
(dp376
S'!'
F0.75606783792017873
sS'Vem'
p377
F0.00010155377272265665
sS'que'
p378
F0.00010155377272265665
sS'tamb\xc3\xa9m'
p379
F0.24362750076165329
sg5
F0.00010155377272265665
ssS'Alcantara'
p380
(dp381
S'@lisbonbylight'
p382
F0.5
sg5
F0.5
ssS','
(dp383
S'feij\xc3\xa3o'
p384
F1.5149678826808872e-05
sg335
F1.5149678826808872e-05
sS'penso'
p385
F1.5149678826808872e-05
sS'j\xc3\xa1'
p386
F4.5449036480426615e-05
sS'tempero'
p387
F0.022663919524906071
sS'Novidades'
p388
F1.5149678826808872e-05
sg344
F1.5149678826808872e-05
sS'mamys'
p389
F1.5149678826808872e-05
sS'patins'
p390
F1.5149678826808872e-05
sS'Londrina'
p391
F1.5149678826808872e-05
sS'TREMOCO'
p392
F0.022663919524906071
sS'ch\xc3\xa1'
p393
F0.022663919524906071
sS'gente'
p394
F1.5149678826808872e-05
sS'd\xc3\xa1'
p395
F1.5149678826808872e-05
sS'pena'
p396
F1.5149678826808872e-05
sS'f\xc3\xadgado'
p397
F1.5149678826808872e-05
sS'do'
p398
F1.5149678826808872e-05
sS'amo'
p399
F1.5149678826808872e-05
sS'finja'
p400
F1.5149678826808872e-05
sS'de'
p401
F4.5449036480426615e-05
sS'da'
p402
F1.5149678826808872e-05
sS'P'
F1.5149678826808872e-05
sS'Veste'
p403
F1.5149678826808872e-05
sS'a\xc3\xa7afr\xc3\xa3o'
p404
F0.022663919524906071
sS'nos'
p405
F0.12150042419100715
sS'vestidinho'
p406
F1.5149678826808872e-05
sS'cenoura'
p407
F1.5149678826808872e-05
sS'dia'
p408
F3.0299357653617743e-05
sS'foi'
p409
F1.5149678826808872e-05
sS'Denise'
p410
F1.5149678826808872e-05
sS'@ridianaortiz'
p411
F1.5149678826808872e-05
sg48
F1.5149678826808872e-05
sS'moringa'
p412
F0.022663919524906071
sS'maltose'
p413
F0.022663919524906071
sS'desxtrose'
p414
F0.022663919524906071
sS'em'
p415
F3.0299357653617743e-05
sS'goji'
p416
F0.022663919524906071
sS'estar\xc3\xa1'
p417
F1.5149678826808872e-05
sS'Acne'
p418
F1.5149678826808872e-05
sS'@prlucasjnv'
p419
F1.5149678826808872e-05
sS'nossa'
p420
F1.5149678826808872e-05
sS'goodnight'
p421
F0.042828142043388681
sS'Glutamina'
p422
F1.5149678826808872e-05
sS'home'
p423
F0.051372560901708886
sS'chega'
p424
F1.5149678826808872e-05
sS'bora'
p425
F1.5149678826808872e-05
sS'nosso'
p426
F1.5149678826808872e-05
sS'sensafiltres'
p427
F1.5149678826808872e-05
sS'00'
p428
F0.055796267119137072
sS'antiinflamat\xc3\xb3rios'
p429
F1.5149678826808872e-05
sg93
F0.022663919524906071
sS'uma'
p430
F1.5149678826808872e-05
sS'shockabsorber'
p431
F1.5149678826808872e-05
sS'matha'
p432
F0.022663919524906071
sS'montanha'
p433
F1.5149678826808872e-05
sg5
F1.5149678826808872e-05
sS'retarda'
p434
F1.5149678826808872e-05
sS'meu'
p435
F1.5149678826808872e-05
sS'melhor'
p436
F1.5149678826808872e-05
sS'que'
p437
F6.0598715307235486e-05
sS'bomdia'
p438
F0.049903042055508426
sS'Uselorenashoes'
p439
F1.5149678826808872e-05
sS'viagem'
p440
F1.5149678826808872e-05
sS'albumina'
p441
F0.022663919524906071
sS'passando'
p442
F1.5149678826808872e-05
sS'zattar'
p443
F0.022663919524906071
sS'ter\xc3\xa7a-feira'
p444
F1.5149678826808872e-05
sS'delicia'
p445
F1.5149678826808872e-05
sS'o'
F7.5748394134044365e-05
sS'BCAA'
p446
F0.022663919524906071
sS'mana'
p447
F1.5149678826808872e-05
sS'cart\xc3\xa3o'
p448
F1.5149678826808872e-05
sS'AMARANTO'
p449
F0.022663919524906071
sS'Rugas'
p450
F1.5149678826808872e-05
sg74
F1.5149678826808872e-05
sS'boa'
p451
F1.5149678826808872e-05
sS'come\xc3\xa7o'
p452
F1.5149678826808872e-05
sS'obrigado'
p453
F1.5149678826808872e-05
sS'com'
p454
F6.0598715307235486e-05
sS'or'
p455
F1.5149678826808872e-05
sS'Bora'
p456
F1.5149678826808872e-05
sS'faltam'
p457
F1.5149678826808872e-05
sS'acesse'
p458
F1.5149678826808872e-05
sS'@gominho'
p459
F1.5149678826808872e-05
sS'\xc3\xa1s'
p460
F1.5149678826808872e-05
sS'@ricardoalexssandro'
p461
F1.5149678826808872e-05
sS'por'
p462
F1.5149678826808872e-05
sS'@wscalioni'
p463
F1.5149678826808872e-05
sS'COLAGENO'
p464
F0.022663919524906071
sS'outro'
p465
F1.5149678826808872e-05
sS'gatas'
p466
F1.5149678826808872e-05
sS'amino'
p467
F0.022663919524906071
sS'\xc3\xa9'
p468
F1.5149678826808872e-05
sS'vai'
p469
F3.0299357653617743e-05
sS'inclusive'
p470
F1.5149678826808872e-05
sS'.'
F0.091307114289177066
sS'natureza'
p471
F1.5149678826808872e-05
sS'jejeje'
p472
F1.5149678826808872e-05
sS'quando'
p473
F1.5149678826808872e-05
sS'talvez'
p474
F1.5149678826808872e-05
sS'hj'
p475
F1.5149678826808872e-05
sg209
F6.0598715307235486e-05
sS'pouco'
p476
F1.5149678826808872e-05
sS'10'
p477
F1.5149678826808872e-05
sS'boanoite'
p478
F0.030723548660768391
sS'presen\xc3\xa7a'
p479
F1.5149678826808872e-05
sS'agora'
p480
F3.0299357653617743e-05
sS'Arrase'
p481
F1.5149678826808872e-05
sS'and'
p482
F1.5149678826808872e-05
sS'al\xc3\xa9m'
p483
F1.5149678826808872e-05
sS'n\xc3\xa3o'
p484
F3.0299357653617743e-05
sS'sal'
p485
F0.022663919524906071
sS'Ti'
p486
F1.5149678826808872e-05
sS'acessando'
p487
F1.5149678826808872e-05
sS'glutamato'
p488
F0.022663919524906071
sS'cunhado'
p489
F1.5149678826808872e-05
sS'cavalinha'
p490
F1.5149678826808872e-05
sS'48'
p491
F1.5149678826808872e-05
sS'no'
p492
F3.0299357653617743e-05
sS'Citrulina'
p493
F1.5149678826808872e-05
sS'na'
p494
F3.0299357653617743e-05
sS'TRIBULUS'
p495
F0.022663919524906071
sS'viste'
p496
F1.5149678826808872e-05
sS'Anabela'
p497
F1.5149678826808872e-05
sS'tr\xc3\xadceps'
p498
F1.5149678826808872e-05
sS'mas'
p499
F3.0299357653617743e-05
sS'mar'
p500
F1.5149678826808872e-05
sS'Cicatrizes'
p501
F3.0299357653617743e-05
sS'vigie'
p502
F1.5149678826808872e-05
sS'Enviamos'
p503
F0.033435341170767179
sS'000'
p504
F1.5149678826808872e-05
sS'maca'
p505
F0.022663919524906071
sS'apenas'
p506
F1.5149678826808872e-05
sS'mulheres'
p507
F1.5149678826808872e-05
sS'a'
F3.0299357653617743e-05
sS'pista'
p508
F1.5149678826808872e-05
sS'@thaysprung'
p509
F1.5149678826808872e-05
sS'e'
F0.022709368561386497
sS'querida'
p510
F1.5149678826808872e-05
sS'assume'
p511
F0.044964246757968729
sS'adorei'
p512
F1.5149678826808872e-05
sS'professor'
p513
F1.5149678826808872e-05
sS'1005-'
p514
F1.5149678826808872e-05
sS'se'
p515
F1.5149678826808872e-05
sS'ainda'
p516
F1.5149678826808872e-05
sS'@mary'
p517
F1.5149678826808872e-05
sS'nublado'
p518
F1.5149678826808872e-05
ssS'@tambemvoucasar'
p519
(dp520
g5
F1
ssS'comente'
p521
(dp522
S'pg'
p523
F0.99977288212582327
sg5
F0.00022711787417669771
ssg184
(dp524
S'/Sisters'
p525
F0.99968857053877291
sg5
F0.0003114294612270321
ssS'Coimbra'
p526
(dp527
S'@dianacaldeira'
p528
F0.5
sg5
F0.5
ssS'valor'
p529
(dp530
S'dessa'
p531
F0.5
sg5
F0.5
ssS'@aninhamuri'
p532
(dp533
S'muitas'
p534
F0.5
sg5
F0.5
ssS'Dork'
p535
(dp536
g5
F1
ssS'fim'
p537
(dp538
S'de'
p539
F0.75
sg5
F0.25
ssS'Sete'
p540
(dp541
g5
F0.5
sS'Lagoas/MG'
p542
F0.5
ssS'@kellymafraf'
p543
(dp544
S'@jordannasoares'
p545
F0.5
sg5
F0.5
ssS'D\xc3\xa1'
p546
(dp547
S'pra'
p548
F0.5
sg5
F0.5
ssS'Soberanas'
p549
(dp550
S','
F0.66666666666666663
sg5
F0.33333333333333331
ssS'@aconxegodolar'
p551
(dp552
S'\xc3\xa9'
p553
F0.5
sg5
F0.5
ssS'brasileiro'
p554
(dp555
g5
F1
ssS'pelas'
p556
(dp557
S'\xc3\xa1guas'
p558
F0.5
sg5
F0.5
ssS'esteira'
p559
(dp560
S'por'
p561
F0.5
sg5
F0.5
ssS'pedalar'
p562
(dp563
S'por'
p564
F0.5
sg5
F0.5
ssS'l'
(dp565
g5
F0.00016957775139901646
sS'o'
F0.42004409021536376
sS'.'
F0.57978633203323726
ssS'@crisduqueestrada'
p566
(dp567
S'Dica'
p568
F0.5
sg5
F0.5
ssS'mensagem'
p569
(dp570
g5
F0.5
sS'rs'
p571
F0.5
ssS'S\xc3\xa1bados'
p572
(dp573
g5
F1
ssS'fitness'
p574
(dp575
g5
F1
ssS'promover'
p576
(dp577
S'uma'
p578
F0.99966318625799933
sg5
F0.00033681374200067362
ssS'@akeltailor'
p579
(dp580
S'pelo'
p581
F0.5
sg5
F0.5
ssS'@mariolgsouza'
p582
(dp583
S'e'
F0.5
sg5
F0.5
ssS'Wow'
p584
(dp585
S'!'
F0.99979096989966554
sg5
F0.00020903010033444816
ssS'SALMOS'
p586
(dp587
S'Cap'
p588
F0.99963289280469902
sg5
F0.00036710719530102788
ssS'FAZER'
p589
(dp590
S'DO'
p591
F0.5
sg5
F0.5
ssS'@hotelvillageporto'
p592
(dp593
S'\xc3\xa9'
p594
F0.5
sg5
F0.5
ssS'logo'
p595
(dp596
S'seu'
p597
F0.33333333333333331
sS'aos'
p598
F0.33333333333333331
sg5
F0.33333333333333331
ssS'Hollywood'
p599
(dp600
S','
F0.5
sg5
F0.5
ssS'itanhaem'
p601
(dp602
g5
F1
ssS'iluminada'
p603
(dp604
S','
F0.5
sg5
F0.5
ssS'rs'
p605
(dp606
g5
F9.6283458501829385e-05
sS'.'
F0.99990371654149812
ssS'Promo'
p607
(dp608
S'?'
F0.99927325581395354
sg5
F0.00072674418604651162
ssS'nunca'
p609
(dp610
S'mais'
p611
F0.5
sg5
F0.5
ssS'Haha'
p612
(dp613
S'!'
F0.3603879530372639
sg5
F0.00012761613067891782
sS'.'
F0.63948443083205719
ssS'quarta-feira'
p614
(dp615
g5
F0.33333333333333331
sS'p\xc3\xb3s-carnaval'
p616
F0.33333333333333331
sS','
F0.33333333333333331
ssS'Downtown'
p617
(dp618
g5
F1
ssS'@concidago1'
p619
(dp620
S'e'
F0.5
sg5
F0.5
ssS'ri'
p621
(dp622
S'mto'
p623
F0.5
sg5
F0.5
ssS'Must'
p624
(dp625
S'Have'
p626
F0.5
sg5
F0.5
ssS'foto'
p627
(dp628
S'para'
p629
F0.00011606313834726091
sS'Papys'
p630
F0.00011606313834726091
sS'assim'
p631
F0.00011606313834726091
sS'por'
p632
F0.00011606313834726091
sS','
F0.34447539461467036
sS'.'
F0.00011606313834726091
sS'fofa'
p633
F0.00011606313834726091
sS'sera'
p634
F0.26253481894150416
sS'sem'
p635
F0.3921773444753946
sg5
F0.00011606313834726091
ssS'Rsss'
p636
(dp637
g5
F1
ssS'Joia'
p638
(dp639
S'Folheada'
p640
F0.5
sg5
F0.5
ssS'Garanta'
p641
(dp642
S'o'
F0.5
sg5
F0.5
ssS'Vc'
p643
(dp644
S'\xc3\xa9'
p645
F0.33333333333333331
sS'foi'
p646
F0.33333333333333331
sg5
F0.33333333333333331
ssg444
(dp647
g5
F0.33333333333333331
sS','
F0.33333333333333331
sS'dia'
p648
F0.33333333333333331
ssg438
(dp649
g5
F1
ssg16
(dp650
S'confiram'
p651
F0.33333333333333331
sS','
F0.33333333333333331
sg5
F0.33333333333333331
ssS'mant\xc3\xaam'
p652
(dp653
S'desde'
p654
F0.5
sg5
F0.5
ssS'sigam'
p655
(dp656
S'@igersbelohorizonte'
p657
F0.33333333333333331
sS'esse'
p658
F0.33333333333333331
sg5
F0.33333333333333331
ssS'whatts'
p659
(dp660
S'?'
F0.5
sg5
F0.5
ssS'Nais'
p661
(dp662
g5
F1
ssS'filter'
p663
(dp664
g5
F0.00035174111853675694
sS'.'
F0.99964825888146325
ssS'planejadas'
p665
(dp666
g5
F0.5
sS'.'
F0.5
ssS'\xd0\x9f\xd1\x80\xd0\xb8\xd0\xb2\xd0\xb5\xd1\x82'
p667
(dp668
S'!'
F0.80000000000000004
sg5
F0.20000000000000001
ssS'\xc3\x89'
p669
(dp670
S'vc'
p671
F0.00066093853271645734
sS'assim'
p672
F0.00066093853271645734
sS'muito'
p673
F0.00066093853271645734
sS'Proibido'
p674
F0.99669530733641776
sg353
F0.00066093853271645734
sg5
F0.00066093853271645734
ssS'f\xc3\xa1cil'
p675
(dp676
g124
F0.066666666666666666
sS'resolver'
p677
F0.8666666666666667
sg5
F0.066666666666666666
ssS'roneylhima'
p678
(dp679
g5
F0.00041084634346754312
sS'.'
F0.99958915365653245
ssS'Diva'
p680
(dp681
S','
F0.5
sg5
F0.5
ssS'merma'
p682
(dp683
S','
F0.5
sg5
F0.5
ssS'tem'
p684
(dp685
S'!'
F0.1111111111111111
sS'30'
p686
F0.1111111111111111
sS'@maltaoficial'
p687
F0.1111111111111111
sS','
F0.1111111111111111
sS'as'
p688
F0.1111111111111111
sS'Jiu'
p689
F0.1111111111111111
sS'uma'
p690
F0.1111111111111111
sS'muitas'
p691
F0.1111111111111111
sg5
F0.1111111111111111
ssS'rsrs'
p692
(dp693
g5
F0.00020412329046744235
sS'.'
F0.99979587670953252
ssS'\xc3\xaa'
p694
(dp695
g5
F0.5
sS'n'
F0.5
ssS'\xc3\xa9'
p696
(dp697
S'em'
p698
F0.022222222222222223
sS'Gurias'
p699
F0.022222222222222223
sg675
F0.28888888888888886
sS'nossa'
p700
F0.022222222222222223
sS'maravilhosa'
p701
F0.022222222222222223
sS'Black'
p702
F0.022222222222222223
sS'nois'
p703
F0.022222222222222223
sS'na'
p704
F0.022222222222222223
sS'alegria'
p705
F0.022222222222222223
sS'tu'
p706
F0.022222222222222223
sS'.'
F0.022222222222222223
sS'uma'
p707
F0.022222222222222223
sS'composto'
p708
F0.022222222222222223
sg5
F0.022222222222222223
sS'indicado'
p709
F0.022222222222222223
sS'S\xc3\xa3o'
p710
F0.066666666666666666
sS'maquina'
p711
F0.022222222222222223
sS'da'
p712
F0.066666666666666666
sS'esse'
p713
F0.022222222222222223
sS'espetacular'
p714
F0.022222222222222223
sS'a'
F0.022222222222222223
sS'dif\xc3\xadcil'
p715
F0.022222222222222223
sS'Belo'
p716
F0.022222222222222223
sS'verdadeira'
p717
F0.022222222222222223
sS'o'
F0.044444444444444446
sS'um'
p718
F0.044444444444444446
sS'com'
p719
F0.022222222222222223
ssS'\xc3\xa8'
p720
(dp721
S'dia'
p722
F0.5
sg5
F0.5
ssS'bonita'
p723
(dp724
S'bandera'
p725
F0.95652173913043481
sg5
F0.043478260869565216
ssS'escolha'
p726
(dp727
S'!'
F0.5
sg5
F0.5
ssS'top'
p728
(dp729
S'!'
F0.99877825290164934
sS'@victoriaknl'
p730
F0.00061087354917532073
sg5
F0.00061087354917532073
ssS'\xc3\xa0'
p731
(dp732
S'noite'
p733
F0.40000000000000002
sS'sexta'
p734
F0.20000000000000001
sS'sua'
p735
F0.20000000000000001
sg5
F0.20000000000000001
ssS'@joanamatoss'
p736
(dp737
S'qual'
p738
F0.5
sg5
F0.5
ssS'@lojaerikafiodstore'
p739
(dp740
S'Agradecemos'
p741
F0.5
sg5
F0.5
ssS'ton'
p742
(dp743
S'Jazz'
p744
F0.5
sg5
F0.5
ssS'GRANDE'
p745
(dp746
S'DIVERS\xc3\x83O'
p747
F0.5
sg5
F0.5
ssS'Viagem'
p748
(dp749
S'Niter\xc3\xb3i'
p750
F0.5
sg5
F0.5
ssS'queria'
p751
(dp752
S'um'
p753
F0.5
sg5
F0.5
ssS'estrada'
p754
(dp755
S'\xc3\xa9'
p756
F0.5
sg5
F0.5
ssS'@leudoloiola'
p757
(dp758
S'Nesse'
p759
F0.5
sg5
F0.5
ssS'segunda'
p760
(dp761
g731
F0.5
sg5
F0.5
ssS'tricolor'
p762
(dp763
S'Claudinha'
p764
F0.5
sg5
F0.5
ssS'oleifeira'
p765
(dp766
S','
F0.99933199732798927
sg5
F0.0006680026720106881
ssS'@eduardosreis12'
p767
(dp768
g5
F1
ssS'Seu'
p769
(dp770
S'cabelo'
p771
F0.5
sg5
F0.5
ssS'Reli'
p772
(dp773
S'toda'
p774
F0.5
sg5
F0.5
ssS'11948795671'
p775
(dp776
S'!'
F0.99957264957264957
sg5
F0.00042735042735042735
ssS'matter'
p777
(dp778
S'what'
p779
F0.5
sg5
F0.5
ssS'este'
p780
(dp781
S'motivo'
p782
F0.33333333333333331
sS'dia'
p783
F0.33333333333333331
sg5
F0.33333333333333331
ssS'@reginacase'
p784
(dp785
g5
F1
ssS'esta'
p786
(dp787
S'foto'
p788
F0.5
sg5
F0.5
ssS'@marynacarvalho'
p789
(dp790
g5
F1
ssS'longa'
p791
(dp792
g219
F0.5
sg5
F0.5
ssg45
(dp793
g5
F1
ssS'Pe\xc3\xa7a'
p794
(dp795
S'com'
p796
F0.99954710144927539
sg5
F0.00045289855072463769
ssS'fam\xc3\xadlia'
p797
(dp798
S'Na'
p799
F0.33333333333333331
sg5
F0.33333333333333331
sS'.'
F0.33333333333333331
ssS'Can\xc3\xa1'
p800
(dp801
S'na'
p802
F0.5
sg5
F0.5
ssS'br/blog'
p803
(dp804
g5
F1
ssS'@eloasp'
p805
(dp806
g5
F1
ssS'POR'
p807
(dp808
S'WHATSAPP'
p809
F0.99960000000000004
sg5
F0.00040000000000000002
ssS'@volafernandes'
p810
(dp811
S','
F0.5
sg5
F0.5
ssS'D\xc3\xaa-se'
p812
(dp813
S'permiss\xc3\xa3o'
p814
F0.5
sg5
F0.5
ssS'quadril'
p815
(dp816
g5
F0.5
sS'.'
F0.5
ssS'prefira'
p817
(dp818
S'os'
p819
F0.5
sg5
F0.5
ssS'@aejmodas'
p820
(dp821
S'tem'
p822
F0.5
sg5
F0.5
ssS'Atendendo'
p823
(dp824
S'a'
F0.5
sg5
F0.5
ssg531
(dp825
g5
F0.33333333333333331
sS'sexta'
p826
F0.33333333333333331
sS'pulseira'
p827
F0.33333333333333331
ssS'LEGAL'
p828
(dp829
S'DO'
p830
F0.5
sg5
F0.5
ssS'Para\xc3\xadso'
p831
(dp832
S'dulce'
p833
F0.5
sg5
F0.5
ssS'carinho'
p834
(dp835
S'a'
F0.25
sS'com'
p836
F0.25
sS'meus'
p837
F0.25
sg5
F0.25
ssS'xiquet'
p838
(dp839
S'i'
F0.5
sg5
F0.5
ssS'do\xc3\xa7ura'
p840
(dp841
S'e'
F0.5
sg5
F0.5
ssS'Aperfei\xc3\xa7oamento'
p842
(dp843
S'Maquiagem'
p844
F0.5
sg5
F0.5
ssS'lindos'
p845
(dp846
S'nesse'
p847
F0.33333333333333331
sg5
F0.33333333333333331
sS'.'
F0.33333333333333331
ssg211
(dp848
g5
F0.5
sS'41'
p849
F0.5
ssS'flor'
p850
(dp851
S'td'
p852
F0.5
sg5
F0.5
ssg513
(dp853
g5
F0.5
sS'da'
p854
F0.5
ssS'Tramonto'
p855
(dp856
S'/'
F0.5
sg5
F0.5
ssS'dog'
p857
(dp858
g5
F0.5
sS'.'
F0.5
ssS'Lisboa'
p859
(dp860
g5
F1
ssS'dos'
p861
(dp862
S'nossos'
p863
F0.33333333333333331
sS'ternos'
p864
F0.33333333333333331
sg5
F0.33333333333333331
ssS'lindoo'
p865
(dp866
S'hahah'
p867
F0.5
sg5
F0.5
ssS'seguran\xc3\xa7a'
p868
(dp869
g5
F0.5
sS'no'
p870
F0.5
ssS'saga'
p871
(dp872
S'HP'
p873
F0.5
sg5
F0.5
ssS'encantado'
p874
(dp875
S'!'
F0.5
sg5
F0.5
ssS'PAC'
p876
(dp877
S'ou'
p878
F0.99968213604577238
sg5
F0.0003178639542275906
ssS'Foto'
p879
(dp880
S'Ser\xc3\xa1'
p881
F0.49988950276243094
sg5
F0.00022099447513812155
sS'No'
p882
F0.49988950276243094
ssS'Big'
p883
(dp884
S'Mac'
p885
F0.5
sg5
F0.5
ssS'acne'
p886
(dp887
S','
F0.5
sg5
F0.5
ssS'Enhorabona'
p888
(dp889
S'!'
F0.99983130904183537
sg5
F0.00016869095816464237
ssS'hrs'
p890
(dp891
g5
F0.5
sS'no'
p892
F0.5
ssS'phyna'
p893
(dp894
S'e'
F0.5
sg5
F0.5
ssg397
(dp895
S','
F0.5
sg5
F0.5
ssS'mena'
p896
(dp897
S'dhu'
p898
F0.5
sg5
F0.5
ssS'do'
p899
(dp900
S'seu'
p901
F0.00065487884741322858
sS'macaco'
p902
F0.00065487884741322858
sS'@prospiter'
p903
F0.00065487884741322858
sS'Frango'
p904
F0.00065487884741322858
sS'@shoppingdelrey'
p905
F0.00065487884741322858
sS'mundo'
p906
F0.00065487884741322858
sS'@nucrepe'
p907
F0.00065487884741322858
sS'momento'
p908
F0.00065487884741322858
sS'@harascaluli'
p909
F0.00065487884741322858
sS'lixo'
p910
F0.00065487884741322858
sS'jogo'
p911
F0.00065487884741322858
sS'nosso'
p912
F0.00065487884741322858
sS'\xc3\xbamero'
p913
F0.00065487884741322858
sS'@trevoacai'
p914
F0.00065487884741322858
sS'Rio'
p915
F0.00065487884741322858
sS'Himalaia'
p916
F0.97969875573018994
sS'YouTube'
p917
F0.00065487884741322858
sS','
F0.00065487884741322858
sg815
F0.00065487884741322858
sS'Trembolino'
p918
F0.00065487884741322858
sS'@pepealemdopeso'
p919
F0.00065487884741322858
sg5
F0.00065487884741322858
sS'meu'
p920
F0.00065487884741322858
sS'que'
p921
F0.00065487884741322858
sS'insta-'
p922
F0.00065487884741322858
sS'lollapalooza'
p923
F0.00065487884741322858
sS'universo'
p924
F0.00065487884741322858
sS'look'
p925
F0.00065487884741322858
sS'MC'
p926
F0.00065487884741322858
sg784
F0.00065487884741322858
sg243
F0.00065487884741322858
sS'MMA'
p927
F0.00065487884741322858
ssS'@martaasouza'
p928
(dp929
g173
F0.5
sg5
F0.5
ssS'di'
p930
(dp931
S'Gelato'
p932
F0.5
sg5
F0.5
ssS'Irm\xc3\xa3o'
p933
(dp934
S'sou'
p935
F0.5
sg5
F0.5
ssS'Isso'
p936
(dp937
S'a\xc3\xad'
p938
F0.5
sg5
F0.5
ssS'de'
p939
(dp940
S'bola'
p941
F6.7303809395611789e-05
sS'vc'
p942
F6.7303809395611789e-05
sS'aeronave'
p943
F6.7303809395611789e-05
sS'f\xc3\xa1cil'
p944
F6.7303809395611789e-05
sS'gra\xc3\xa7a'
p945
F0.33571140126531163
sg338
F6.7303809395611789e-05
sS'sol'
p946
F6.7303809395611789e-05
sS'\xc3\xb3dio'
p947
F6.7303809395611789e-05
sS'skate'
p948
F6.7303809395611789e-05
sS'camisa'
p949
F6.7303809395611789e-05
sS'Melo'
p950
F6.7303809395611789e-05
sS'semana'
p951
F0.00026921523758244715
sS'shogakosei'
p952
F6.7303809395611789e-05
sS'1K'
p953
F6.7303809395611789e-05
sS'volta'
p954
F6.7303809395611789e-05
sS'gatas'
p955
F6.7303809395611789e-05
sS'voc\xc3\xaas'
p956
F6.7303809395611789e-05
sS'Cabeleireiro'
p957
F6.7303809395611789e-05
sS'mar\xc3\xa7o'
p958
F6.7303809395611789e-05
sS'corridas'
p959
F0.1124646655000673
sS'express\xc3\xa3o'
p960
F6.7303809395611789e-05
sS'encerramento'
p961
F6.7303809395611789e-05
sS'croch\xc3\xaa'
p962
F6.7303809395611789e-05
sg886
F6.7303809395611789e-05
sS'amino\xc3\xa1cidos'
p963
F6.7303809395611789e-05
sS'.'
F0.18501817202853682
sS'12h'
p964
F6.7303809395611789e-05
sS'2'
F0.14853950733611523
sS'massa'
p965
F6.7303809395611789e-05
sS'Santa'
p966
F6.7303809395611789e-05
sS'uma'
p967
F6.7303809395611789e-05
sS'descanso'
p968
F6.7303809395611789e-05
sg569
F6.7303809395611789e-05
sS'Alto'
p969
F6.7303809395611789e-05
sg540
F6.7303809395611789e-05
sS'Mar\xc3\xa7o'
p970
F6.7303809395611789e-05
sg526
F6.7303809395611789e-05
sg5
F6.7303809395611789e-05
sg760
F6.7303809395611789e-05
sS'S\xc3\xa3o'
p971
F6.7303809395611789e-05
sS'rua'
p972
F0.1124646655000673
sS'trabalhar'
p973
F6.7303809395611789e-05
sS'campinas'
p974
F6.7303809395611789e-05
sS'R'
F0.00013460761879122358
sS'amigos'
p975
F6.7303809395611789e-05
sS"vc's"
p976
F6.7303809395611789e-05
sS'reprodu\xc3\xa7\xc3\xa3o'
p977
F0.10149414456858258
sS'10'
p978
F6.7303809395611789e-05
sS'Belo'
p979
F6.7303809395611789e-05
sS'atendimento'
p980
F6.7303809395611789e-05
sS'celebrar'
p981
F6.7303809395611789e-05
sS'18'
p982
F6.7303809395611789e-05
sg599
F6.7303809395611789e-05
sS'segundona'
p983
F6.7303809395611789e-05
sS'um'
p984
F6.7303809395611789e-05
sS'hoje'
p985
F0.00013460761879122358
sS'atropelamento'
p986
F6.7303809395611789e-05
sS'bom'
p987
F0.00013460761879122358
sg248
F6.7303809395611789e-05
sS'estar'
p988
F6.7303809395611789e-05
sS'manga'
p989
F6.7303809395611789e-05
sS'cortes'
p990
F6.7303809395611789e-05
sg253
F0.00013460761879122358
ssS'@vivafitt'
p991
(dp992
S'estou'
p993
F0.5
sg5
F0.5
ssS'da'
p994
(dp995
S'galeteria'
p996
F0.00027654867256637168
sS'noite'
p997
F0.00027654867256637168
sS'semana'
p998
F0.00027654867256637168
sS'.'
F0.57936946902654862
sS'instala\xc3\xa7\xc3\xa3o'
p999
F0.00027654867256637168
sS'TV'
p1000
F0.00027654867256637168
sS'vida'
p1001
F0.00027654867256637168
sS'@sammydressclothing'
p1002
F0.00027654867256637168
sS'sexta-feira'
p1003
F0.00027654867256637168
sS'ro\xc3\xa7a'
p1004
F0.00027654867256637168
sS'@myminicollection'
p1005
F0.00027654867256637168
sg5
F0.00027654867256637168
sg638
F0.00027654867256637168
sS'@metamorfosebrasil'
p1006
F0.00027654867256637168
sS'Boa'
p1007
F0.00027654867256637168
sS'curcuma'
p1008
F0.41371681415929201
sS'MHP'
p1009
F0.00027654867256637168
sS'@catinsun'
p1010
F0.00027654867256637168
sS'Lagoa'
p1011
F0.00027654867256637168
sS'@muzungusisters'
p1012
F0.00027654867256637168
sS'nossa'
p1013
F0.00027654867256637168
sS'@4any1assessoria'
p1014
F0.00027654867256637168
sS'cidade'
p1015
F0.00027654867256637168
sS'hist\xc3\xb3ria'
p1016
F0.00027654867256637168
sS'um'
p1017
F0.00027654867256637168
sS'minha'
p1018
F0.00055309734513274336
ssS'@eufabronifit'
p1019
(dp1020
S'algemas'
p1021
F0.5
sg5
F0.5
ssS'Colorado'
p1022
(dp1023
S'Appia'
p1024
F0.5
sg5
F0.5
ssS'Neto'
p1025
(dp1026
S'Morte'
p1027
F0.5
sg5
F0.5
ssS'marque'
p1028
(dp1029
S'em'
p1030
F0.5
sg5
F0.5
ssS'@luizbacci'
p1031
(dp1032
g5
F1
ssS'Washington'
p1033
(dp1034
S'falaram'
p1035
F0.5
sg5
F0.5
ssS'compras'
p1036
(dp1037
S'prozis'
p1038
F0.5
sg5
F0.5
ssS'comprar'
p1039
(dp1040
S'!'
F0.47230691056910568
sS'?'
F0.52743902439024393
sg5
F0.00025406504065040653
ssS'Rio'
p1041
(dp1042
S'\xc3\xa9'
p1043
F0.59999999999999998
sS'Vermelho'
p1044
F0.20000000000000001
sg5
F0.20000000000000001
ssS'Corre'
p1045
(dp1046
g5
F0.20000000000000001
sS'l\xc3\xa1'
p1047
F0.80000000000000004
ssS'@homensbelos'
p1048
(dp1049
g5
F1
ssS'sentido'
p1050
(dp1051
S'a'
F0.5
sg5
F0.5
ssS'A-Bomb'
p1052
(dp1053
g5
F0.5
sS'da'
p1054
F0.5
ssS'@angelacarvalho'
p1055
(dp1056
g582
F0.5
sg5
F0.5
ssS'Rsrs'
p1057
(dp1058
g5
F0.00011757789535567314
sS'.'
F0.99988242210464429
ssS'momentos'
p1059
(dp1060
g5
F0.25
sS'.'
F0.75
ssS'Saraiva'
p1061
(dp1062
S'com'
p1063
F0.5
sg5
F0.5
ssS'@constancacalcados'
p1064
(dp1065
S'do'
p1066
F0.5
sg5
F0.5
ssg421
(dp1067
g5
F1
ssS'num'
p1068
(dp1069
S'povo'
p1070
F0.5
sg5
F0.5
ssS'gostando'
p1071
(dp1072
g5
F0.5
sS'das'
p1073
F0.5
ssS'bonito'
p1074
(dp1075
S'el'
p1076
F0.25
sS','
F0.25
sS'es'
p1077
F0.25
sg5
F0.25
ssS'02'
p1078
(dp1079
S'/'
F0.5
sg5
F0.5
ssS'eres'
p1080
(dp1081
g5
F0.5
sS'avrd'
p1082
F0.5
ssg428
(dp1083
S'tamanho'
p1084
F0.5
sg5
F0.5
ssS'01'
p1085
(dp1086
g5
F0.00040799673602611179
sS'17'
p1087
F0.00040799673602611179
sS'.'
F0.99918400652794781
ssS'06'
p1088
(dp1089
g5
F0.5
sS'23'
p1090
F0.5
ssS'07'
p1091
(dp1092
g5
F0.33333333333333331
sS'.'
F0.66666666666666663
ssS'Ufa'
p1093
(dp1094
S'!'
F0.99954421148587058
sg5
F0.00045578851412944393
ssS'igualzinha'
p1095
(dp1096
S'a'
F0.5
sg5
F0.5
ssS'Rua'
p1097
(dp1098
S'Alberto'
p1099
F0.5
sg5
F0.5
ssS'saiu'
p1100
(dp1101
S'!'
F0.5
sg5
F0.5
ssS'Climinha'
p1102
(dp1103
S'd'
F0.5
sg5
F0.5
ssS'365'
p1104
(dp1105
S'Projeto'
p1106
F0.5
sg5
F0.5
ssg968
(dp1107
S'em'
p1108
F0.5
sg5
F0.5
ssg433
(dp1109
S','
F0.5
sg5
F0.5
ssS'99964-0800'
p1110
(dp1111
g5
F1
ssS'C'
(dp1112
S'H'
F0.00018491124260355029
sg5
F0.00018491124260355029
sS'.'
F0.99963017751479288
ssS'Domingo'
p1113
(dp1114
S'tbm'
p1115
F0.5
sg5
F0.5
ssS'nossas'
p1116
(dp1117
S'pastas'
p1118
F0.33333333333333331
sS'pages'
p1119
F0.33333333333333331
sg5
F0.33333333333333331
ssg634
(dp1120
S'publicada'
p1121
F0.99955810870525852
sg5
F0.00044189129474149361
ssS'Contato'
p1122
(dp1123
S'por'
p1124
F0.5
sg5
F0.5
ssg227
(dp1125
g5
F1
ssS'@fabinhopena'
p1126
(dp1127
g5
F1
ssS'Povo'
p1128
(dp1129
S'que'
p1130
F0.5
sg5
F0.5
ssS'falar'
p1131
(dp1132
S'com'
p1133
F0.5
sg5
F0.5
ssS'falam'
p1134
(dp1135
S'isso'
p1136
F0.5
sg5
F0.5
ssS'pepeca'
p1137
(dp1138
g5
F1
ssS'coi'
p1139
(dp1140
S'phim'
p1141
F0.5
sg5
F0.5
ssS'Logo'
p1142
(dp1143
S'mais'
p1144
F0.5
sg5
F0.5
ssS'com'
p1145
(dp1146
S'www'
p1147
F0.012255629599216751
sS'pra'
p1148
F0.0079572371537757012
sg786
F1.5791302150775353e-06
sS'1126'
p1149
F4.7373906452326058e-06
sS'@multifato'
p1150
F1.5791302150775353e-06
sS'as'
p1151
F4.7373906452326058e-06
sS'fraturas'
p1152
F1.5791302150775353e-06
sg791
F1.5791302150775353e-06
sS'Garantia'
p1153
F0.0034851403846761202
sS'varia\xc3\xa7\xc3\xa3o'
p1154
F1.5791302150775353e-06
sS'!'
F0.0099106212298266123
sS'.'
F0.93976091968543729
sS'5'
F2.0528692796007957e-05
sS'uma'
p1155
F1.5791302150775353e-06
sS'muita'
p1156
F3.1582604301550707e-06
sS'destaque'
p1157
F1.5791302150775353e-06
sS'para'
p1158
F0.0078751223825916684
sg319
F1.5791302150775353e-06
sS'Corona'
p1159
F1.5791302150775353e-06
sS'meu'
p1160
F3.1582604301550707e-06
sS'facebook'
p1161
F0.0024413353125098698
sS'cara'
p1162
F1.5791302150775353e-06
sS'a'
F0.0046773836970596594
sS'10'
p1163
F1.5791302150775353e-06
sS'@raisa'
p1164
F1.5791302150775353e-06
sS'e'
F0.0080819884407668258
sS'voce'
p1165
F1.5791302150775353e-06
sS'o'
F6.3165208603101414e-06
sS'Excelente'
p1166
F0.0034867195148911979
sS'neblina'
p1167
F1.5791302150775353e-06
sS'esse'
p1168
F1.5791302150775353e-06
sg5
F1.5791302150775353e-06
ssS'at\xc3\xa9'
p1169
(dp1170
S'a'
F0.00037327360955580441
sS'3x'
p1171
F0.00037327360955580441
sS'31'
p1172
F0.00037327360955580441
sS'12x'
p1173
F0.49906681597611047
sS'as'
p1174
F0.00037327360955580441
sS'6x'
p1175
F0.49906681597611047
sg5
F0.00037327360955580441
ssS'pre'
p1176
(dp1177
g5
F0.5
sS'contest'
p1178
F0.5
ssS'Siga-nos'
p1179
(dp1180
S'2'
F0.99955810870525852
sg5
F0.00044189129474149361
ssS'sonreite'
p1181
(dp1182
S'algo'
p1183
F0.5
sg5
F0.5
ssS'amarela'
p1184
(dp1185
S'tamb\xc3\xa9m'
p1186
F0.5
sg5
F0.5
ssg484
(dp1187
S'do'
p1188
F0.071428571428571425
sS'ando'
p1189
F0.071428571428571425
sS'vai'
p1190
F0.071428571428571425
sS'curtir'
p1191
F0.071428571428571425
sS'pe\xc3\xa7o'
p1192
F0.071428571428571425
sS'acompanhou'
p1193
F0.071428571428571425
sS'far\xc3\xa1'
p1194
F0.071428571428571425
sS'amiga'
p1195
F0.071428571428571425
sS'quero'
p1196
F0.071428571428571425
sS'menos'
p1197
F0.071428571428571425
sS'amar'
p1198
F0.071428571428571425
sS'existir'
p1199
F0.071428571428571425
sg665
F0.071428571428571425
sg5
F0.071428571428571425
ssS'camisa'
p1200
(dp1201
S'azul'
p1202
F0.33333333333333331
sS'Preta'
p1203
F0.33333333333333331
sg5
F0.33333333333333331
ssS'demais'
p1204
(dp1205
g5
F0.5
sS'No'
p1206
F0.5
ssS'sao'
p1207
(dp1208
S'essas'
p1209
F0.5
sg5
F0.5
ssS'Sofistica\xc3\xa7\xc3\xa3o'
p1210
(dp1211
g5
F0.0004526935264825713
sS'.'
F0.99954730647351742
ssg955
(dp1212
g549
F0.66666666666666663
sg5
F0.33333333333333331
ssS'Recomendo'
p1213
(dp1214
S'!'
F0.99961360123647602
sg5
F0.00038639876352395672
ssS'Sdv'
p1215
(dp1216
g5
F1
ssS'Envia'
p1217
(dp1218
g5
F0.5
sS'or\xc3\xa7amento'
p1219
F0.5
ssS'.'
(dp1220
g5
F1
ssS'Sdd'
p1221
(dp1222
S'd'
F0.5
sg5
F0.5
ssS'@meutesouromeular'
p1223
(dp1224
S'@minhacasaamarela'
p1225
F0.5
sg5
F0.5
ssS'@dorysmendes'
p1226
(dp1227
S'mix'
p1228
F0.5
sg5
F0.5
ssS'Aunque'
p1229
(dp1230
g5
F0.5
sS'no'
p1231
F0.5
ssS'Vlew'
p1232
(dp1233
S'por'
p1234
F0.5
sg5
F0.5
ssS'TRADI\xc3\x87\xc3\x83O'
p1235
(dp1236
S'EM'
p1237
F0.5
sg5
F0.5
ssS'@fotocitando'
p1238
(dp1239
g5
F1
ssg508
(dp1240
S'!'
F0.5
sg5
F0.5
ssS'@josyxroberto'
p1241
(dp1242
g5
F0.5
sS'Da'
p1243
F0.5
ssS'suas'
p1244
(dp1245
S'fotos'
p1246
F0.20000000000000001
sS'escolhas'
p1247
F0.20000000000000001
sS'd\xc3\xbavidas'
p1248
F0.20000000000000001
sS'unhas'
p1249
F0.20000000000000001
sg5
F0.20000000000000001
ssS'pagava'
p1250
(dp1251
S'Pau'
p1252
F0.5
sg5
F0.5
ssS'@yaciandrade'
p1253
(dp1254
g5
F1
ssS'@alvaritoochando'
p1255
(dp1256
S'comprame'
p1257
F0.5
sg5
F0.5
ssS'M\xc3\xa3es'
p1258
(dp1259
S'do'
p1260
F0.5
sg5
F0.5
ssS'n'
(dp1261
S'c'
F0.35247361929560095
sg5
F0.00013704262025489926
sS'u'
F0.35233657667534601
sS'.'
F0.29505276140879816
ssg986
(dp1262
S'com'
p1263
F0.5
sg5
F0.5
ssS'viii'
p1264
(dp1265
g5
F1
ssS'Saarad\xc3\xa3o'
p1266
(dp1267
g238
F0.5
sg5
F0.5
ssg1015
(dp1268
S','
F0.5
sg5
F0.5
ssS'@faz3'
p1269
(dp1270
g5
F1
ssS'desta'
p1271
(dp1272
g614
F0.5
sg5
F0.5
ssg222
(dp1273
S'D'
F0.5
sg5
F0.5
ssS'lindaaaAsss'
p1274
(dp1275
S'!'
F0.5
sg5
F0.5
ssS'iq'
p1276
(dp1277
S'@tango'
p1278
F0.99977220956719814
sg5
F0.00022779043280182233
ssS'afastadas'
p1279
(dp1280
S'abdu\xc3\xa7\xc3\xa3o'
p1281
F0.5
sg5
F0.5
ssS'Sejt'
p1282
(dp1283
S'musse'
p1284
F0.5
sg5
F0.5
ssS'ir'
p1285
(dp1286
S'a'
F0.33333333333333331
sg5
F0.33333333333333331
sS'l\xc3\xa1'
p1287
F0.33333333333333331
ssS'it'
p1288
(dp1289
S"doesn't"
p1290
F0.5
sg5
F0.5
ssS'Muito'
p1291
(dp1292
S'Bem'
p1293
F0.00043668122270742359
sg5
F0.00043668122270742359
sS'obrigado'
p1294
F0.00087336244541484718
sS'.'
F0.99825327510917028
ssS'Capital'
p1295
(dp1296
g5
F0.5
sS'da'
p1297
F0.5
ssS'@ancmoraes'
p1298
(dp1299
g5
F1
ssS'ig'
p1300
(dp1301
S'!'
F0.99940499801666005
sg5
F0.00019833399444664816
sS'e'
F0.00019833399444664816
sg289
F0.00019833399444664816
ssS'if'
p1302
(dp1303
S'two'
p1304
F0.5
sg5
F0.5
ssS'Lindas'
p1305
(dp1306
S'Semijoias'
p1307
F0.5
sg5
F0.5
ssS'fotos'
p1308
(dp1309
S'!'
F0.20000000000000001
sS'haha'
p1310
F0.20000000000000001
sS'de'
p1311
F0.20000000000000001
sg1207
F0.20000000000000001
sg5
F0.20000000000000001
ssS'Prata'
p1312
(dp1313
S'voc\xc3\xaa'
p1314
F0.5
sg5
F0.5
ssS'make'
p1315
(dp1316
S'porreta'
p1317
F0.33333333333333331
sS'de'
p1318
F0.33333333333333331
sg5
F0.33333333333333331
ssg867
(dp1319
S'com'
p1320
F0.5
sg5
F0.5
ssS'vegetable'
p1321
(dp1322
S'Ceagesp'
p1323
F0.5
sg5
F0.5
ssg898
(dp1324
g5
F1
ssg382
(dp1325
g5
F1
ssS'livro'
p1326
(dp1327
S'foi'
p1328
F0.5
sg5
F0.5
ssS'\xc3\xa0s'
p1329
(dp1330
S'23h'
p1331
F0.33333333333333331
sS'19h'
p1332
F0.33333333333333331
sg5
F0.33333333333333331
ssS'homenagem'
p1333
(dp1334
S'!'
F0.5
sg5
F0.5
ssS'Dia'
p1335
(dp1336
g5
F0.5
sS'das'
p1337
F0.5
ssS'aparecer'
p1338
(dp1339
S'em'
p1340
F0.5
sg5
F0.5
ssS'Receba'
p1341
(dp1342
S'em'
p1343
F0.99954710144927539
sg5
F0.00045289855072463769
ssg217
(dp1344
g5
F0.5
sS'da'
p1345
F0.5
ssS'Clarice'
p1346
(dp1347
g101
F0.99955614735907683
sg5
F0.00044385264092321349
ssg1012
(dp1348
S','
F0.5
sg5
F0.5
ssS'@venturalelo'
p1349
(dp1350
S'e'
F0.5
sg5
F0.5
ssS'808'
p1351
(dp1352
S'@gmail'
p1353
F0.5
sg5
F0.5
ssS'Publicada'
p1354
(dp1355
S'Obs'
p1356
F0.99955810870525852
sg5
F0.00044189129474149361
ssS'programa'
p1357
(dp1358
S'Ligados'
p1359
F0.5
sg5
F0.5
ssS'fideos'
p1360
(dp1361
S'a'
F0.5
sg5
F0.5
ssS'@mferuizdalpino'
p1362
(dp1363
S'mais'
p1364
F0.5
sg5
F0.5
ssS'the'
p1365
(dp1366
S'heart'
p1367
F0.00029788501638367589
sg5
F0.00029788501638367589
sS'author'
p1368
F0.99940422996723266
ssS'@joaooliveira5052'
p1369
(dp1370
S'\xc3\xa9'
p1371
F0.5
sg5
F0.5
ssS'gordito'
p1372
(dp1373
g5
F1
ssS'passar\xc3\xadamos'
p1374
(dp1375
S'o'
F0.5
sg5
F0.5
ssS'diur\xc3\xa9ticos'
p1376
(dp1377
S'hibisco'
p1378
F0.5
sg5
F0.5
ssS'veja'
p1379
(dp1380
S'todo'
p1381
F0.44182971972501323
sS'como'
p1382
F0.55790586991010049
sg5
F0.00026441036488630354
ssS'novos'
p1383
(dp1384
S'modelos'
p1385
F0.5
sg5
F0.5
ssS'repost'
p1386
(dp1387
S'of'
p1388
F0.99970202622169246
sg5
F0.00029797377830750892
ssS'elo'
p1389
(dp1390
S'7'
F0.99982117310443486
sg5
F0.00017882689556509299
ssS'ela'
p1391
(dp1392
S'\xc3\xa9'
p1393
F0.5
sg5
F0.5
ssS'ele'
p1394
(dp1395
S'se'
p1396
F0.5
sg5
F0.5
ssS'coloca'
p1397
(dp1398
S'o'
F0.5
sg5
F0.5
ssS'Acesse'
p1399
(dp1400
S'www'
p1401
F0.88948750452734515
sg5
F4.527345164795364e-05
sS'nosso'
p1402
F0.11046722202100688
ssS'whatsapp'
p1403
(dp1404
S','
F0.99987532726592698
sg5
F0.00012467273407305821
ssS's\xc3\xb3'
p1405
(dp1406
g1134
F0.33333333333333331
sS'delicias'
p1407
F0.33333333333333331
sg5
F0.33333333333333331
ssS'D'
(dp1408
g5
F0.0002022653721682848
sS'eheh'
p1409
F0.0002022653721682848
sS'.'
F0.99959546925566345
ssS'assim'
p1410
(dp1411
S'@natiribeirodm'
p1412
F0.20000000000000001
sS'mesmo'
p1413
F0.20000000000000001
sS'vc'
p1414
F0.20000000000000001
sS'@chirleiasantos'
p1415
F0.20000000000000001
sg5
F0.20000000000000001
ssS'coroa'
p1416
(dp1417
S'eterna'
p1418
F0.5
sg5
F0.5
ssS'online'
p1419
(dp1420
S'www'
p1421
F0.5
sg5
F0.5
ssS'vandilm'
p1422
(dp1423
S'@hotmail'
p1424
F0.5
sg5
F0.5
ssS'donat'
p1425
(dp1426
S'a'
F0.5
sg5
F0.5
ssg1159
(dp1427
g5
F0.5
sS'.'
F0.5
ssS'natal'
p1428
(dp1429
g5
F0.5
sS'.'
F0.5
ssS'Desde'
p1430
(dp1431
S'aqu\xc3\xad'
p1432
F0.5
sg5
F0.5
ssS'linda'
p1433
(dp1434
S'do'
p1435
F0.125
sS'\xc3\xa9'
p1436
F0.125
sS'S\xc3\xa3o'
p1437
F0.125
sS'uwu'
p1438
F0.125
sS'@shirleycampelli'
p1439
F0.125
sS'Claudinha'
p1440
F0.125
sS'page'
p1441
F0.125
sg5
F0.125
ssS'Delicinha'
p1442
(dp1443
S'de'
p1444
F0.5
sg5
F0.5
ssS'VOGUE'
p1445
(dp1446
S'Espanha-'
p1447
F0.5
sg5
F0.5
ssS'Bomb'
p1448
(dp1449
g5
F0.00069156293222683268
sS'.'
F0.99930843706777317
ssS'58'
p1450
(dp1451
g5
F0.5
sS'4264239278'
p1452
F0.5
ssS'@fefecarvalhooficial'
p1453
(dp1454
S'morriii'
p1455
F0.5
sg5
F0.5
ssS'cool'
p1456
(dp1457
S'do'
p1458
F0.33333333333333331
sg5
F0.33333333333333331
sS'da'
p1459
F0.33333333333333331
ssS'manual'
p1460
(dp1461
S'@achelmachim'
p1462
F0.5
sg5
F0.5
ssS'PARAHOY'
p1463
(dp1464
S'!'
F0.5
sg5
F0.5
ssg864
(dp1465
S'@nadia'
p1466
F0.5
sg5
F0.5
ssg118
(dp1467
S'!'
F0.20000000000000001
sS'real'
p1468
F0.20000000000000001
sg5
F0.20000000000000001
sS'@weldrinhulk'
p1469
F0.20000000000000001
sS','
F0.20000000000000001
ssS'Vista-'
p1470
(dp1471
S'RR'
p1472
F0.5
sg5
F0.5
ssS'www'
p1473
(dp1474
g5
F4.1378910824309283e-06
sS'.'
F0.99999586210891755
ssS'estar\xc3\xa1'
p1475
(dp1476
S'na'
p1477
F0.20000000000000001
sS'provisoriamente'
p1478
F0.20000000000000001
sS'participando'
p1479
F0.40000000000000002
sg5
F0.20000000000000001
ssS'people'
p1480
(dp1481
S'are'
p1482
F0.66666666666666663
sg5
F0.33333333333333331
ssS'HR'
p1483
(dp1484
g5
F0.5
sS'da'
p1485
F0.5
ssg873
(dp1486
g5
F0.5
sS'no'
p1487
F0.5
ssS'Estas'
p1488
(dp1489
S'linda'
p1490
F0.5
sg5
F0.5
ssS'Aqu\xc3\xad'
p1491
(dp1492
S'se'
p1493
F0.5
sg5
F0.5
ssS'@polypolycarpo-'
p1494
(dp1495
S'O'
F0.5
sg5
F0.5
ssg425
(dp1496
g5
F0.5
sS'l\xc3\xa1'
p1497
F0.5
ssg1455
(dp1498
g5
F0.5
sS'.'
F0.5
ssS'@odelossantosh'
p1499
(dp1500
g5
F1
ssS'Quando'
p1501
(dp1502
S'comecei'
p1503
F0.25
sS'n\xc3\xa3o'
p1504
F0.25
sS'o'
F0.25
sg5
F0.25
ssS'/'
(dp1505
S'Brigada'
p1506
F9.2669817440459645e-05
sS'03'
p1507
F9.2669817440459645e-05
sS'We'
p1508
F0.31090723751274207
sS'Sal\xc3\xa3o'
p1509
F9.2669817440459645e-05
sg1088
F9.2669817440459645e-05
sg1091
F0.00018533963488091929
sS'38'
p1510
F9.2669817440459645e-05
sg775
F0.2167547029932351
sS'SP'
p1511
F9.2669817440459645e-05
sS'39'
p1512
F9.2669817440459645e-05
sS'o'
F0.19432860717264386
sg241
F9.2669817440459645e-05
sS'FEATURED'
p1513
F0.2767120748772125
sS'2'
F9.2669817440459645e-05
sS'v'
F9.2669817440459645e-05
sg1104
F9.2669817440459645e-05
sg5
F9.2669817440459645e-05
ssS'Prorrogamos'
p1514
(dp1515
S'a'
F0.5
sg5
F0.5
ssS'muito'
p1516
(dp1517
S'caprichados'
p1518
F0.125
sS'mais'
p1519
F0.125
sS'feliz'
p1520
F0.125
sg1074
F0.125
sS'pequena'
p1521
F0.125
sS'grande'
p1522
F0.125
sS'amor'
p1523
F0.125
sg5
F0.125
ssS'Facebook'
p1524
(dp1525
S'!'
F0.0002010454362685967
sg5
F0.0002010454362685967
sS'.'
F0.99959790912746282
ssg809
(dp1526
S'31'
p1527
F0.99960000000000004
sg5
F0.00040000000000000002
ssS'foda'
p1528
(dp1529
S'me'
p1530
F0.5
sg5
F0.5
ssg297
(dp1531
g896
F0.5
sg5
F0.5
ssg1156
(dp1532
S'aventura'
p1533
F0.33333333333333331
sg840
F0.33333333333333331
sg5
F0.33333333333333331
ssg941
(dp1534
S','
F0.5
sg5
F0.5
ssS'Flare'
p1535
(dp1536
S'Bandagem'
p1537
F0.5
sg5
F0.5
ssS'bolo'
p1538
(dp1539
S'Fa\xc3\xa7am'
p1540
F0.5
sg5
F0.5
ssS'Place'
p1541
(dp1542
g5
F0.5
sS'that'
p1543
F0.5
ssS'louca'
p1544
(dp1545
S'pra'
p1546
F0.5
sg5
F0.5
ssS'post'
p1547
(dp1548
g5
F0.5
sS'no'
p1549
F0.5
ssS'super'
p1550
(dp1551
S'confort\xc3\xa1vel'
p1552
F0.33333333333333331
sg5
F0.33333333333333331
sS'comediante'
p1553
F0.33333333333333331
ssS'Renato'
p1554
(dp1555
S'e'
F0.5
sg5
F0.5
ssg715
(dp1556
S'mesmo'
p1557
F0.5
sg5
F0.5
ssS'Tagueiem'
p1558
(dp1559
S'suas'
p1560
F0.5
sg5
F0.5
ssS'obg'
p1561
(dp1562
g234
F0.5
sg5
F0.5
ssS'o'
(dp1563
S'macaquinho'
p1564
F5.091724100041584e-08
sS'www'
p1565
F0.00027902648068227879
sS'filh\xc3\xa3o'
p1566
F5.091724100041584e-08
sS'show'
p1567
F5.091724100041584e-08
sS'seu'
p1568
F0.00015081686784323173
sS'calend\xc3\xa1rio'
p1569
F8.5082709711694872e-05
sS'video'
p1570
F5.091724100041584e-08
sS'Bruno'
p1571
F5.091724100041584e-08
sS'Atlas'
p1572
F5.091724100041584e-08
sS'C\xc3\xa2ncer-'
p1573
F5.091724100041584e-08
sS'sorteio'
p1574
F1.0183448200083168e-07
sS'amigo'
p1575
F5.091724100041584e-08
sg883
F5.091724100041584e-08
sS'apoio'
p1576
F5.091724100041584e-08
sS'/'
F0.00021354690875574403
sS'.'
F0.0016021109880780845
sS'Job'
p1577
F5.091724100041584e-08
sS'perfil'
p1578
F0.00015112237128923423
sg5
F5.091724100041584e-08
sS'destaque'
p1579
F5.091724100041584e-08
sS'Brasil'
p1580
F0.00011242526812891818
sg34
F1.0183448200083168e-07
sg1335
F5.091724100041584e-08
sS'O'
F0.00016695763324036354
sg6
F0.98840568596903633
sS'que'
p1581
F1.5275172300124751e-07
sS'Quarter\xc3\xa3o'
p1582
F5.091724100041584e-08
sg1547
F5.091724100041584e-08
sS'cara'
p1583
F5.091724100041584e-08
sS'resultado'
p1584
F5.091724100041584e-08
sS'devido'
p1585
F0.00017204935734040512
sS'sabor'
p1586
F5.091724100041584e-08
sS'look'
p1587
F5.091724100041584e-08
sS'clipe'
p1588
F5.091724100041584e-08
sS'mai\xc3\xb4/body'
p1589
F5.091724100041584e-08
sS'dia'
p1590
F5.091724100041584e-08
sS'o'
F0.0084024140271296219
sg519
F5.091724100041584e-08
sS's'
F0.00013090822661206912
sS'c\xc3\xa2ncer'
p1591
F5.091724100041584e-08
sS'v'
F0.00012612200595803005
sS'coturno'
p1592
F5.091724100041584e-08
sS'@pedrotodaro'
p1593
F5.091724100041584e-08
ssg616
(dp1594
S'\xc3\xa9'
p1595
F0.5
sg5
F0.5
ssS'algo'
p1596
(dp1597
S'n\xc3\xa3o'
p1598
F0.5
sg5
F0.5
ssS'esperar'
p1599
(dp1600
S'dessa'
p1601
F0.5
sg5
F0.5
ssg361
(dp1602
S'ou'
p1603
F0.00015349194167306216
sg5
F0.00015349194167306216
sS'.'
F0.99969301611665384
ssS'maroc'
p1604
(dp1605
S','
F0.5
sg5
F0.5
ssS'SUB'
p1606
(dp1607
S'11'
p1608
F0.5
sg5
F0.5
ssS'soh'
p1609
(dp1610
S'galera'
p1611
F0.5
sg5
F0.5
ssS'Make'
p1612
(dp1613
S'de'
p1614
F0.33333333333333331
sS'mais'
p1615
F0.33333333333333331
sg5
F0.33333333333333331
ssg946
(dp1616
S','
F0.5
sg5
F0.5
ssS'Hummm'
p1617
(dp1618
g5
F0.00028893383415197921
sS'.'
F0.99971106616584804
ssS'sor'
p1619
(dp1620
S'curti\xc3\xa7\xc3\xa3o'
p1621
F0.5
sg5
F0.5
ssS'Alcoba\xc3\xa7a'
p1622
(dp1623
S'\xc3\xa9'
p1624
F0.5
sg5
F0.5
ssg464
(dp1625
S'HIDROLISADO'
p1626
F0.99933199732798927
sg5
F0.0006680026720106881
ssS'Emoldurado'
p1627
(dp1628
S'pela'
p1629
F0.5
sg5
F0.5
ssS'MONTESE'
p1630
(dp1631
S'ao'
p1632
F0.5
sg5
F0.5
ssg958
(dp1633
g5
F0.5
sS'.'
F0.5
ssS'tamo'
p1634
(dp1635
S'junto'
p1636
F0.33333333333333331
sS'aqui'
p1637
F0.33333333333333331
sg5
F0.33333333333333331
ssS'flagras'
p1638
(dp1639
S'@floripaoncars'
p1640
F0.99951290793960057
sg5
F0.00048709206039941551
ssS'rec\xc3\xadproca'
p1641
(dp1642
S'\xc3\xa9'
p1643
F0.5
sg5
F0.5
ssS'nova'
p1644
(dp1645
S'm\xc3\xbasica'
p1646
F0.5
sg5
F0.5
ssS'palco'
p1647
(dp1648
S'do'
p1649
F0.5
sg5
F0.5
ssS'wordpress'
p1650
(dp1651
g5
F0.00037188545927854219
sS'.'
F0.99962811454072142
ssS'PRODUTOS'
p1652
(dp1653
S'PRONTA'
p1654
F0.99962990377498151
sg5
F0.00037009622501850479
ssS'perfumes'
p1655
(dp1656
g67
F0.5
sg5
F0.5
ssS'Aqui'
p1657
(dp1658
S'estamos'
p1659
F0.5
sg5
F0.5
ssS'Sundays'
p1660
(dp1661
S'!'
F0.5
sg5
F0.5
ssg709
(dp1662
S'para'
p1663
F0.5
sg5
F0.5
ssg507
(dp1664
S'que'
p1665
F0.5
sg5
F0.5
ssS'verde'
p1666
(dp1667
S','
F0.99933199732798927
sg5
F0.0006680026720106881
ssS'escribeme'
p1668
(dp1669
S'al'
p1670
F0.5
sg5
F0.5
ssS'@maariaeeduarda'
p1671
(dp1672
g5
F1
ssg187
(dp1673
S'na'
p1674
F0.5
sg5
F0.5
ssS'Sassy'
p1675
(dp1676
g5
F1
ssS'Embrujadas'
p1677
(dp1678
g5
F0.33333333333333331
sS'.'
F0.66666666666666663
ssg1585
(dp1679
S'cr\xc3\xa9dito'
p1680
F0.99940845903578823
sS'ao'
p1681
F0.00029577048210588581
sg5
F0.00029577048210588581
ssg1415
(dp1682
S'a'
F0.5
sg5
F0.5
ssg528
(dp1683
g5
F1
ssS'mto'
p1684
(dp1685
S'aqui'
p1686
F0.33333333333333331
sS'tempo'
p1687
F0.33333333333333331
sg5
F0.33333333333333331
ssS'@ronaldor19'
p1688
(dp1689
g5
F1
ssS'@nosnatrip'
p1690
(dp1691
S's\xc3\xa3o'
p1692
F0.5
sg5
F0.5
ssS'150'
p1693
(dp1694
S'or'
p1695
F0.5
sg5
F0.5
ssS'ganhar'
p1696
(dp1697
g5
F0.00014086491055078181
sS'seguidores'
p1698
F0.99971827017889847
sS'pamonha'
p1699
F0.00014086491055078181
ssg470
(dp1700
g5
F0.5
sS'quero'
p1701
F0.5
ssS'Limeira'
p1702
(dp1703
S'a'
F0.5
sg5
F0.5
ssS'CROPPED'
p1704
(dp1705
S'caveira'
p1706
F0.5
sg5
F0.5
ssS'Dinda'
p1707
(dp1708
g5
F1
ssS'brilho'
p1709
(dp1710
S'em'
p1711
F0.5
sg5
F0.5
ssS'mole'
p1712
(dp1713
S','
F0.5
sg5
F0.5
ssS'Sim'
p1714
(dp1715
S'estou'
p1716
F0.5
sg5
F0.5
ssS'FOMO'
p1717
(dp1718
g5
F1
ssS'Navidad'
p1719
(dp1720
S'!'
F0.99984476870537098
sg5
F0.0001552312946289972
ssS'tarde'
p1721
(dp1722
S'galera'
p1723
F0.25
sS'!'
F0.25
sg5
F0.25
sg757
F0.25
ssS'vista'
p1724
(dp1725
g5
F0.5
sS'.'
F0.5
ssS'@chicapalito'
p1726
(dp1727
S'!'
F0.5
sg5
F0.5
ssg496
(dp1728
S'www'
p1729
F0.5
sg5
F0.5
ssS'no'
p1730
(dp1731
S'www'
p1732
F0.69930545070209871
sS'ano'
p1733
F7.5494488902310135e-05
sS'site'
p1734
F0.00030197795560924054
sS'momento'
p1735
F7.5494488902310135e-05
sS'blog'
p1736
F7.5494488902310135e-05
sS'Snap'
p1737
F0.00015098897780462027
sS'ig'
p1738
F7.5494488902310135e-05
sS'nosso'
p1739
F7.5494488902310135e-05
sS'boundaries'
p1740
F7.5494488902310135e-05
sS'ganho'
p1741
F7.5494488902310135e-05
sS'perfil'
p1742
F0.19719160501283406
sS'Santa'
p1743
F7.5494488902310135e-05
sS'Facebook'
p1744
F7.5494488902310135e-05
sS'fim'
p1745
F7.5494488902310135e-05
sS'ABC'
p1746
F7.5494488902310135e-05
sS'Brasil'
p1747
F7.5494488902310135e-05
sg301
F7.5494488902310135e-05
sS'centro'
p1748
F7.5494488902310135e-05
sg108
F0.00015098897780462027
sS'odio'
p1749
F7.5494488902310135e-05
sS'pov\xc3\xa3o'
p1750
F7.5494488902310135e-05
sS'dia'
p1751
F0.00030197795560924054
sS'MUNDO'
p1752
F7.5494488902310135e-05
sS'face'
p1753
F7.5494488902310135e-05
sS'cart\xc3\xa3o'
p1754
F0.10093613166238864
sg322
F7.5494488902310135e-05
sS'olhar'
p1755
F7.5494488902310135e-05
sS'Ton'
p1756
F7.5494488902310135e-05
sg5
F7.5494488902310135e-05
ssS'na'
p1757
(dp1758
S'bio'
p1759
F0.99728647112029978
sS'@boutiqueesplendor'
p1760
F0.00012921566093810569
sS'loja'
p1761
F0.00012921566093810569
sS'quarta-feira'
p1762
F0.00012921566093810569
sS'm\xc3\xa3o'
p1763
F0.00012921566093810569
sS'minha'
p1764
F0.00012921566093810569
sS'unidade'
p1765
F0.00012921566093810569
sS'promo\xc3\xa7\xc3\xa3o'
p1766
F0.00025843132187621139
sS'inaugura\xc3\xa7\xc3\xa3o'
p1767
F0.00012921566093810569
sS'boca'
p1768
F0.00012921566093810569
sg820
F0.00012921566093810569
sS'torcida'
p1769
F0.00012921566093810569
sS'Galil\xc3\xa9ia'
p1770
F0.00012921566093810569
sS'nossa'
p1771
F0.00012921566093810569
sg126
F0.00012921566093810569
sg1137
F0.00012921566093810569
sS'popula\xc3\xa7\xc3\xa3o'
p1772
F0.00012921566093810569
sS'Fabbrica'
p1773
F0.00012921566093810569
sS'ter\xc3\xa7a-feira'
p1774
F0.00012921566093810569
sS'Vida'
p1775
F0.00012921566093810569
sg5
F0.00012921566093810569
ssS'ne'
p1776
(dp1777
g1671
F0.33333333333333331
sg5
F0.33333333333333331
sS'@gabrielsilveiira'
p1778
F0.33333333333333331
ssS'junta'
p1779
(dp1780
S'?'
F0.5
sg5
F0.5
ssg1317
(dp1781
S'e'
F0.5
sg5
F0.5
ssS'tio'
p1782
(dp1783
g5
F0.5
sS'famoso'
p1784
F0.5
ssS'@claytonsm'
p1785
(dp1786
g5
F1
ssS'180m'
p1787
(dp1788
g139
F0.90000000000000002
sg5
F0.10000000000000001
ssS'a\xc3\xa7\xc3\xa3o'
p1789
(dp1790
S'para'
p1791
F0.5
sg5
F0.5
ssS'E'
(dp1792
S'pra'
p1793
F8.0795023026581565e-05
sS'a\xc3\xad'
p1794
F8.0795023026581565e-05
sS'.'
F0.9995960248848671
sg589
F8.0795023026581565e-05
sg179
F8.0795023026581565e-05
sg5
F8.0795023026581565e-05
ssS'@livgom48'
p1795
(dp1796
S'\xc3\xa9'
p1797
F0.5
sg5
F0.5
ssS'S\xc3\xa3o'
p1798
(dp1799
S'Paulina'
p1800
F0.00017574692442882251
sS'Sebasti\xc3\xa3o'
p1801
F0.00052724077328646752
sS'Paulo'
p1802
F0.99876977152899826
sS'muito'
p1803
F0.00017574692442882251
sS'silvestre'
p1804
F0.00017574692442882251
sg5
F0.00017574692442882251
ssS'n\xc3\xb3s'
p1805
(dp1806
g5
F0.5
sS'nos'
p1807
F0.5
ssS'modelo'
p1808
(dp1809
S','
F0.5
sg5
F0.5
ssS'Porra'
p1810
(dp1811
S'@igorpontes91'
p1812
F0.33333333333333331
sS'snoopy'
p1813
F0.33333333333333331
sg5
F0.33333333333333331
ssg542
(dp1814
g5
F0.5
sS'.'
F0.5
ssg833
(dp1815
S'Necesito'
p1816
F0.5
sg5
F0.5
ssg511
(dp1817
S'a'
F0.99966318625799933
sg5
F0.00033681374200067362
ssS'promessa'
p1818
(dp1819
S'do'
p1820
F0.5
sg5
F0.5
ssS'm\xc3\xa3ezinha'
p1821
(dp1822
g5
F1
ssS'Tricolor'
p1823
(dp1824
S'Como'
p1825
F0.5
sg5
F0.5
ssS'together'
p1826
(dp1827
g5
F0.5
sS'.'
F0.5
ssS'parcela'
p1828
(dp1829
S'muito'
p1830
F0.5
sg5
F0.5
ssg957
(dp1831
S'!'
F0.5
sg5
F0.5
ssS'jantinha'
p1832
(dp1833
S'do'
p1834
F0.5
sg5
F0.5
ssS'autoriza\xc3\xa7\xc3\xa3o'
p1835
(dp1836
g5
F0.00066269052352551359
sS'.'
F0.99933730947647448
ssS'admirar'
p1837
(dp1838
S'o'
F0.5
sg5
F0.5
ssg1194
(dp1839
S'isso'
p1840
F0.5
sg5
F0.5
ssg429
(dp1841
S'e'
F0.5
sg5
F0.5
ssg903
(dp1842
g5
F0.5
sS'.'
F0.5
ssS'@panapanaatelie'
p1843
(dp1844
S'Como'
p1845
F0.5
sg5
F0.5
ssg996
(dp1846
S'Luiz'
p1847
F0.5
sg5
F0.5
ssg1197
(dp1848
S'do'
p1849
F0.33333333333333331
sS'de'
p1850
F0.33333333333333331
sg5
F0.33333333333333331
ssg388
(dp1851
S','
F0.5
sg5
F0.5
ssg390
(dp1852
S','
F0.5
sg5
F0.5
ssS'algumas'
p1853
(dp1854
S'dicas'
p1855
F0.66666666666666663
sg5
F0.33333333333333331
ssS'ver'
p1856
(dp1857
S'!'
F0.00053705692803437163
sS'vcs'
p1858
F0.00053705692803437163
sS'mais'
p1859
F0.99838882921589689
sg5
F0.00053705692803437163
ssS'deiiixa'
p1860
(dp1861
S'meu'
p1862
F0.5
sg5
F0.5
ssg687
(dp1863
S'em'
p1864
F0.5
sg5
F0.5
ssS'vez'
p1865
(dp1866
S'lembrando'
p1867
F0.99866488651535379
sg5
F0.00066755674232309744
sS'do'
p1868
F0.00066755674232309744
ssS'pelo'
p1869
(dp1870
S'pov\xc3\xa3o'
p1871
F0.00017580872011251758
sS'sustendo'
p1872
F0.00017580872011251758
sS'convite'
p1873
F0.00017580872011251758
sS'mundo'
p1874
F0.00017580872011251758
sS'carinho'
p1875
F0.00017580872011251758
sg1403
F0.99876933895921238
sS'trabalho'
p1876
F0.00017580872011251758
sg5
F0.00017580872011251758
ssS'd\xc3\xa1'
p1877
(dp1878
S'algumas'
p1879
F0.33333333333333331
sS'mais'
p1880
F0.33333333333333331
sg5
F0.33333333333333331
ssS'fadiga'
p1881
(dp1882
S'muscular'
p1883
F0.5
sg5
F0.5
ssS'0'
(dp1884
S'S'
F0.75
sg5
F0.25
ssS'Possui'
p1885
(dp1886
S'agentes'
p1887
F0.5
sg5
F0.5
ssg578
(dp1888
g627
F0.44373038409804216
sS'pessoa'
p1889
F0.00014945449110745777
sg1832
F0.00014945449110745777
sS'para'
p1890
F0.00014945449110745777
sg1789
F0.00014945449110745777
sS'olhada'
p1891
F0.00014945449110745777
sg1865
F0.22358391869675684
sg5
F0.00014945449110745777
sS'diva'
p1892
F0.00014945449110745777
sg1828
F0.00014945449110745777
sS'surpresa'
p1893
F0.00029890898221491554
sS'enorme'
p1894
F0.00014945449110745777
sS'for\xc3\xa7a'
p1895
F0.00014945449110745777
sS'futura'
p1896
F0.00014945449110745777
sS'peruca'
p1897
F0.00014945449110745777
sS'linda'
p1898
F0.00014945449110745777
sS'boa'
p1899
F0.00014945449110745777
sS'continua\xc3\xa7\xc3\xa3o'
p1900
F0.00014945449110745777
sS'pe\xc3\xa7a'
p1901
F0.32999551636526675
sS'margarita'
p1902
F0.00014945449110745777
ssS'Day'
p1903
(dp1904
S'10'
p1905
F0.5
sg5
F0.5
ssS'Usooo'
p1906
(dp1907
S'!'
F0.5
sg5
F0.5
ssS'Comprem'
p1908
(dp1909
S'agora'
p1910
F0.5
sg5
F0.5
ssS'@robsonlimaprofbike'
p1911
(dp1912
S','
F0.5
sg5
F0.5
ssg1902
(dp1913
S'com'
p1914
F0.5
sg5
F0.5
ssg1770
(dp1915
S'E'
F0.5
sg5
F0.5
ssS'conhe\xc3\xa7o'
p1916
(dp1917
S'a'
F0.5
sg5
F0.5
ssS'dia'
p1918
(dp1919
S'Siga'
p1920
F0.11538461538461539
sS'24'
p1921
F0.076923076923076927
sS'do'
p1922
F0.076923076923076927
sS'feliz'
p1923
F0.038461538461538464
sS'das'
p1924
F0.038461538461538464
sS'de'
p1925
F0.11538461538461539
sg5
F0.038461538461538464
sS'.'
F0.11538461538461539
sS'p'
F0.038461538461538464
sg1271
F0.038461538461538464
sS'!'
F0.038461538461538464
sS'que'
p1926
F0.038461538461538464
sS'8'
F0.038461538461538464
sS'pessoas'
p1927
F0.038461538461538464
sS'2'
F0.038461538461538464
sS'da'
p1928
F0.038461538461538464
sg330
F0.038461538461538464
sS'at\xc3\xa9'
p1929
F0.038461538461538464
ssS'foi'
p1930
(dp1931
S'a'
F0.1111111111111111
sS'com'
p1932
F0.1111111111111111
sS'dia'
p1933
F0.22222222222222221
sS'uma'
p1934
F0.1111111111111111
sS'lindo'
p1935
F0.1111111111111111
sg1528
F0.1111111111111111
sS'monstro'
p1936
F0.1111111111111111
sg5
F0.1111111111111111
ssS'@tiagoeduardo16'
p1937
(dp1938
g1860
F0.5
sg5
F0.5
ssS'p'
(dp1939
g5
F0.0001937984496124031
sS'ver'
p1940
F0.0001937984496124031
sS'como'
p1941
F0.0001937984496124031
sS'o'
F0.49825581395348839
sS'.'
F0.50116279069767444
ssS'Tag'
p1942
(dp1943
g5
F1
ssS'pedidos'
p1944
(dp1945
S'estaremos'
p1946
F0.5
sg5
F0.5
ssS'diz'
p1947
(dp1948
g1442
F0.5
sg5
F0.5
ssg1887
(dp1949
g69
F0.5
sg5
F0.5
ssS'Sensual'
p1950
(dp1951
g5
F1
ssS'conhecendo'
p1952
(dp1953
S'agora'
p1954
F0.5
sg5
F0.5
ssg1533
(dp1955
g5
F0.5
sS'.'
F0.5
ssS'percebi'
p1956
(dp1957
S'que'
p1958
F0.5
sg5
F0.5
ssS'Boy'
p1959
(dp1960
g5
F0.5
sS'no'
p1961
F0.5
ssS'@cervejariacolorado'
p1962
(dp1963
S'!'
F0.5
sg5
F0.5
ssg1768
(dp1964
g5
F0.5
sg1253
F0.5
ssg1149
(dp1965
g5
F1
ssS'@jaquellinecruz'
p1966
(dp1967
S'beijos'
p1968
F0.5
sg5
F0.5
ssS'crian\xc3\xa7as'
p1969
(dp1970
S'DIARIAMENTE'
p1971
F0.5
sg5
F0.5
ssg910
(dp1972
g5
F1
ssS'Ref'
p1973
(dp1974
g5
F0.00048732943469785572
sS'.'
F0.99951267056530213
ssS'comprado'
p1975
(dp1976
g5
F0.5
sS'.'
F0.5
ssS'curso'
p1977
(dp1978
S'Vip\xc3\xadssimo'
p1979
F0.5
sg5
F0.5
ssS'poderosos'
p1980
(dp1981
S','
F0.5
sg5
F0.5
ssS'@edmilsonfilho21'
p1982
(dp1983
S'na'
p1984
F0.5
sg5
F0.5
ssS'planejeepasse'
p1985
(dp1986
g5
F0.00036643459142543056
sS'.'
F0.99963356540857462
ssS'Que'
p1987
(dp1988
S'chulo'
p1989
F0.60500230520977405
sg1274
F0.0001152604887044721
sg723
F0.0025357307514983865
sS'show'
p1990
F0.20343476256339327
sg728
F0.18845089903181189
sS'bonito'
p1991
F0.0001152604887044721
sS'magerrima'
p1992
F0.0001152604887044721
sS'honra'
p1993
F0.0001152604887044721
sg5
F0.0001152604887044721
ssS'melo'
p1994
(dp1995
S'1'
F0.5
sg5
F0.5
ssS'Magno'
p1996
(dp1997
S','
F0.5
sg5
F0.5
ssg332
(dp1998
S'11'
p1999
F0.33333333333333331
sS'31'
p2000
F0.33333333333333331
sg5
F0.33333333333333331
ssS'True'
p2001
(dp2002
S'!'
F0.99952244508118437
sg5
F0.00047755491881566379
ssS'@machadokel88'
p2003
(dp2004
g5
F1
ssg1503
(dp2005
S'j\xc3\xa1'
p2006
F0.5
sg5
F0.5
ssS'Emma'
p2007
(dp2008
g5
F1
ssS'agosto'
p2009
(dp2010
S'2016'
p2011
F0.5
sg5
F0.5
ssg1508
(dp2012
g5
F0.00029797377830750892
sS"don't"
p2013
F0.99970202622169246
ssS'Peso'
p2014
(dp2015
g5
F0.5
sS'L\xc3\xa1'
p2016
F0.5
ssg178
(dp2017
S'q'
F0.5
sg5
F0.5
ssS'melhor'
p2018
(dp2019
S'!'
F0.99843014128728413
sS'hotel'
p2020
F0.00039246467817896392
sS'parte'
p2021
F0.00039246467817896392
sg5
F0.00039246467817896392
sS'parceiro'
p2022
F0.00039246467817896392
ssS'@osquatrodogs'
p2023
(dp2024
g279
F0.5
sg5
F0.5
ssS'Hahaha'
p2025
(dp2026
S'!'
F0.32640877246420957
sS'@efcarvalho14'
p2027
F6.091989034419738e-05
sg5
F6.091989034419738e-05
sS'.'
F0.67346938775510201
ssg440
(dp2028
g163
F0.5
sg5
F0.5
ssg442
(dp2029
S'aqui'
p2030
F0.5
sg5
F0.5
ssg1010
(dp2031
g5
F1
ssS'SEDEX'
p2032
(dp2033
g5
F0.0003178639542275906
sS'.'
F0.99968213604577238
ssg926
(dp2034
S"Donald's"
p2035
F0.5
sg5
F0.5
ssS'AHAHAHHA'
p2036
(dp2037
S'Love'
p2038
F0.5
sg5
F0.5
ssS'MT'
p2039
(dp2040
g5
F0.33333333333333331
sS'aproveitar'
p2041
F0.33333333333333331
sS'bem'
p2042
F0.33333333333333331
ssg1192
(dp2043
S'sua'
p2044
F0.5
sg5
F0.5
ssS'obrigada'
p2045
(dp2046
S'amigo'
p2047
F0.5
sg5
F0.5
ssS'bon'
p2048
(dp2049
S'dia'
p2050
F0.33333333333333331
sg838
F0.33333333333333331
sg5
F0.33333333333333331
ssS'boa'
p2051
(dp2052
S'tarde'
p2053
F0.14285714285714285
sS'para'
p2054
F0.14285714285714285
sS'.'
F0.14285714285714285
sS'noite'
p2055
F0.2857142857142857
sS'op\xc3\xa7\xc3\xa3o'
p2056
F0.14285714285714285
sg5
F0.14285714285714285
ssg453
(dp2057
S'@jcpiovezan'
p2058
F0.25
sS'pelo'
p2059
F0.25
sS','
F0.25
sg5
F0.25
ssg1901
(dp2060
S'com'
p2061
F0.99954730647351742
sg5
F0.0004526935264825713
ssS'Bora'
p2062
(dp2063
S'!'
F0.99907063197026025
sS'?'
F0.00046468401486988845
sg5
F0.00046468401486988845
ssS'@mezo0o3'
p2064
(dp2065
g5
F1
ssS'Lindonas'
p2066
(dp2067
S'!'
F0.99963503649635033
sg5
F0.00036496350364963501
ssS'love'
p2068
(dp2069
S'To'
p2070
F0.5
sg5
F0.5
ssS'doen\xc3\xa7as'
p2071
(dp2072
S'como'
p2073
F0.5
sg5
F0.5
ssg905
(dp2074
S'foi'
p2075
F0.5
sg5
F0.5
ssg1894
(dp2076
S'alegria'
p2077
F0.5
sg5
F0.5
ssS'@caiopaschoal'
p2078
(dp2079
S'vcs'
p2080
F0.5
sg5
F0.5
ssg1099
(dp2081
g1996
F0.5
sg5
F0.5
ssg951
(dp2082
S'e'
F0.16666666666666666
sS','
F0.16666666666666666
sS'o'
F0.16666666666666666
sS'ainda'
p2083
F0.16666666666666666
sg327
F0.16666666666666666
sg5
F0.16666666666666666
ssS'@thiagofelixfotografia'
p2084
(dp2085
g5
F0.5
sS'mude'
p2086
F0.5
ssS'Franja'
p2087
(dp2088
S'Boho'
p2089
F0.5
sg5
F0.5
ssg1189
(dp2090
S'nada'
p2091
F0.5
sg5
F0.5
ssg1640
(dp2092
g5
F0.00048709206039941551
sS'.'
F0.99951290793960057
ssS'Valeu'
p2093
(dp2094
g805
F0.25
sS'pela'
p2095
F0.25
sS','
F0.25
sg5
F0.25
ssS'@iedamariambastos'
p2096
(dp2097
S'me'
p2098
F0.5
sg5
F0.5
ssS'Xmas'
p2099
(dp2100
g5
F1
ssg1680
(dp2101
S'ao'
p2102
F0.99970414201183433
sg5
F0.00029585798816568048
ssS'msm'
p2103
(dp2104
S'!'
F0.5
sg5
F0.5
ssS'@foxxual'
p2105
(dp2106
g5
F1
ssg22
(dp2107
g789
F0.5
sg5
F0.5
ssS'Rss'
p2108
(dp2109
g5
F1
ssS'Swan'
p2110
(dp2111
S'dive'
p2112
F0.5
sg5
F0.5
ssg1293
(dp2113
g1977
F0.5
sg5
F0.5
ssS'fruits'
p2114
(dp2115
S'and'
p2116
F0.5
sg5
F0.5
ssg1521
(dp2117
S'na'
p2118
F0.5
sg5
F0.5
ssS'Obrigada'
p2119
(dp2120
S'@gallettechocolates'
p2121
F0.125
sS'@leonascimentophoto'
p2122
F0.125
sg143
F0.125
sS','
F0.25
sS'@vamosqvamosaline'
p2123
F0.125
sS'amigos'
p2124
F0.125
sg5
F0.125
ssg922
(dp2125
S'ps'
p2126
F0.5
sg5
F0.5
ssS'Bet'
p2127
(dp2128
S'Paniquete'
p2129
F0.5
sg5
F0.5
ssg221
(dp2130
g5
F1
ssS'cas'
p2131
(dp2132
S'a'
F0.5
sg5
F0.5
ssg1537
(dp2133
S'Pink'
p2134
F0.5
sg5
F0.5
ssS'Senhora'
p2135
(dp2136
S'que'
p2137
F0.5
sg5
F0.5
ssg927
(dp2138
S'tb'
p2139
F0.5
sg5
F0.5
ssg1571
(dp2140
S'Almeida'
p2141
F0.5
sg5
F0.5
ssg1367
(dp2142
S','
F0.5
sg5
F0.5
ssS'tirar'
p2143
(dp2144
S'a'
F0.5
sg5
F0.5
ssg1772
(dp2145
S'entende'
p2146
F0.5
sg5
F0.5
ssS'97611-5911'
p2147
(dp2148
S'Promo\xc3\xa7\xc3\xa3o'
p2149
F0.5
sg5
F0.5
ssS'Layla'
p2150
(dp2151
g5
F0.5
sg264
F0.5
ssg487
(dp2152
S'www'
p2153
F0.5
sg5
F0.5
ssS'noite'
p2154
(dp2155
S'pra'
p2156
F0.14285714285714285
sS'Brasil'
p2157
F0.14285714285714285
sS'de'
p2158
F0.14285714285714285
sS'.'
F0.2857142857142857
sS'?'
F0.14285714285714285
sg5
F0.14285714285714285
ssg902
(dp2159
g5
F0.5
sS'.'
F0.5
ssS'perdeu'
p2160
(dp2161
S'a'
F0.33333333333333331
sS'essas'
p2162
F0.33333333333333331
sg5
F0.33333333333333331
ssS'Whatsapp'
p2163
(dp2164
S'81'
p2165
F0.99954275262917236
sg5
F0.00045724737082761773
ssS'dpo-'
p2166
(dp2167
S'Micka'
p2168
F0.5
sg5
F0.5
ssS'agendar'
p2169
(dp2170
S'um'
p2171
F0.5
sg5
F0.5
ssg916
(dp2172
S','
F0.99933199732798927
sg5
F0.0006680026720106881
ssS'pousada'
p2173
(dp2174
S'?'
F0.5
sg5
F0.5
ssS'1'
(dp2175
g1179
F0.1764568219049848
sS'aninho'
p2176
F7.800920508620017e-05
sS'Bjo'
p2177
F7.800920508620017e-05
sS'30'
p2178
F7.800920508620017e-05
sS'Corrida'
p2179
F7.800920508620017e-05
sS'.'
F0.82315313206958418
sg5
F7.800920508620017e-05
ssg2041
(dp2180
S'a'
F0.5
sg5
F0.5
ssg1225
(dp2181
g551
F0.5
sg5
F0.5
ssS'Why'
p2182
(dp2183
S'so'
p2184
F0.99984760743675705
sg5
F0.00015239256324291374
ssg499
(dp2185
g1100
F0.33333333333333331
sg817
F0.33333333333333331
sg5
F0.33333333333333331
ssg500
(dp2186
S'pra'
p2187
F0.33333333333333331
sS','
F0.33333333333333331
sg5
F0.33333333333333331
ssg1331
(dp2188
S','
F0.5
sg5
F0.5
ssS'primeiro'
p2189
(dp2190
S'lugar'
p2191
F0.5
sg5
F0.5
ssS'primeira'
p2192
(dp2193
S'cole\xc3\xa7\xc3\xa3o'
p2194
F0.5
sg5
F0.5
ssg2112
(dp2195
S'com'
p2196
F0.5
sg5
F0.5
ssg1892
(dp2197
g5
F0.5
sS'doce'
p2198
F0.5
ssS'Venha'
p2199
(dp2200
S'conhecer'
p2201
F0.5
sg5
F0.5
ssS'pqp'
p2202
(dp2203
S'ps'
p2204
F0.5
sg5
F0.5
ssg503
(dp2205
S'para'
p2206
F0.0004526935264825713
sS'Para'
p2207
F0.99909461294703483
sg5
F0.0004526935264825713
ssg598
(dp2208
g5
F0.5
sS'treinos'
p2209
F0.5
ssS'VinnyAndj'
p2210
(dp2211
g5
F1
ssg759
(dp2212
g1808
F0.5
sg5
F0.5
ssS'Nessa'
p2213
(dp2214
g5
F1
ssg1816
(dp2215
g259
F0.5
sg5
F0.5
ssg1165
(dp2216
S'!'
F0.5
sg5
F0.5
ssS'q'
(dp2217
g5
F0.25
sg621
F0.25
sS'legal'
p2218
F0.25
sS'danadinho'
p2219
F0.25
ssS'@nayaracybelleleitte'
p2220
(dp2221
g5
F1
ssS'si'
p2222
(dp2223
S'ho'
p2224
F0.5
sg5
F0.5
ssS'@catsofinstagram'
p2225
(dp2226
g5
F1
ssg989
(dp2227
S'longa'
p2228
F0.5
sg5
F0.5
ssS'se'
p2229
(dp2230
S'faz'
p2231
F0.083333333333333329
sS'voc\xc3\xaa'
p2232
F0.083333333333333329
sS'soubesse'
p2233
F0.083333333333333329
sS've'
p2234
F0.083333333333333329
sS'inspirar'
p2235
F0.083333333333333329
sS'transporta'
p2236
F0.083333333333333329
sg1050
F0.083333333333333329
sS'chamaria'
p2237
F0.083333333333333329
sS'bobear'
p2238
F0.083333333333333329
sS'volta'
p2239
F0.083333333333333329
sS'fosse'
p2240
F0.083333333333333329
sg5
F0.083333333333333329
ssS'@chriscastanho'
p2241
(dp2242
g5
F0.5
sS'sabe'
p2243
F0.5
ssS'Rs'
p2244
(dp2245
S'!'
F0.18908536240890345
sg1501
F5.6493983390768884e-05
sg5
F5.6493983390768884e-05
sS'.'
F0.810801649624315
ssS'treinamento'
p2246
(dp2247
g5
F0.5
sS'intenso'
p2248
F0.5
ssS'Comfy'
p2249
(dp2250
g5
F1
ssS'falado'
p2251
(dp2252
S'de'
p2253
F0.5
sg5
F0.5
ssS'voltar'
p2254
(dp2255
S'logo'
p2256
F0.5
sg5
F0.5
ssg296
(dp2257
S'E'
F0.5
sg5
F0.5
ssg389
(dp2258
S','
F0.5
sg5
F0.5
ssS'@carmensteffens'
p2259
(dp2260
S'trouxe'
p2261
F0.5
sg5
F0.5
ssS'forma'
p2262
(dp2263
g5
F1
ssg1859
(dp2264
S'a'
F0.0002966478789676654
sS'1'
F0.0002966478789676654
sS'e'
F0.55146840700088995
sS'sucesso'
p2265
F0.0002966478789676654
sS'Tarde'
p2266
F0.0002966478789676654
sS'certo'
p2267
F0.0002966478789676654
sS'baf\xc3\xb4nico'
p2268
F0.0002966478789676654
sS'.'
F0.44378522693562739
sS'um'
p2269
F0.0002966478789676654
sS'energia'
p2270
F0.0002966478789676654
sS'lindas'
p2271
F0.0002966478789676654
sS'lindo'
p2272
F0.0002966478789676654
sS'linda'
p2273
F0.0002966478789676654
sg1709
F0.0002966478789676654
sg5
F0.0002966478789676654
sS'hein'
p2274
F0.0002966478789676654
sg1456
F0.00059329575793533079
ssg2179
(dp2275
S'Contra'
p2276
F0.5
sg5
F0.5
ssS'RC'
p2277
(dp2278
S'voc\xc3\xaa'
p2279
F0.5
sg5
F0.5
ssS'sorrir'
p2280
(dp2281
g609
F0.5
sg5
F0.5
ssS'@espacodinapaiva'
p2282
(dp2283
g5
F1
ssS'ascens\xc3\xa3o'
p2284
(dp2285
S'@peruadalinguasolta'
p2286
F0.5
sg5
F0.5
ssS'passar'
p2287
(dp2288
g5
F0.5
sg659
F0.5
ssS'RJ'
p2289
(dp2290
g5
F0.5
sS'.'
F0.5
ssS'perdi'
p2291
(dp2292
S'a'
F0.5
sg5
F0.5
ssS'comparando'
p2293
(dp2294
g559
F0.5
sg5
F0.5
ssg711
(dp2295
g5
F1
ssS'sorriso'
p2296
(dp2297
S'que'
p2298
F0.5
sg5
F0.5
ssS'kkk'
p2299
(dp2300
g5
F0.00040064102564102563
sS'.'
F0.99959935897435892
ssS'@mixtourviagens'
p2301
(dp2302
g1622
F0.5
sg5
F0.5
ssg405
(dp2303
S'contate'
p2304
F0.9993769470404984
sS'meus'
p2305
F0.00012461059190031152
sg1028
F0.00012461059190031152
sS'cart\xc3\xb5es'
p2306
F0.00012461059190031152
sS'dias'
p2307
F0.00012461059190031152
sg5
F0.00012461059190031152
ssS'Paco'
p2308
(dp2309
S'na'
p2310
F0.5
sg5
F0.5
ssg1278
(dp2311
g5
F0.00022779043280182233
sS'.'
F0.99977220956719814
ssS'Compreenda'
p2312
(dp2313
S','
F0.5
sg5
F0.5
ssg1203
(dp2314
g5
F1
ssg654
(dp2315
S'a'
F0.5
sg5
F0.5
ssg935
(dp2316
S'apaixonado'
p2317
F0.5
sg5
F0.5
ssS'em'
p2318
(dp2319
S'www'
p2320
F0.07978890989287965
sS'seu'
p2321
F3.9382482671707626e-05
sS'menos'
p2322
F3.9382482671707626e-05
sS'Pernambuco'
p2323
F0.065808128544423444
sS'fam\xc3\xadlia'
p2324
F3.9382482671707626e-05
sS'nosso'
p2325
F3.9382482671707626e-05
sg601
F3.9382482671707626e-05
sS'1923'
p2326
F3.9382482671707626e-05
sS'sua'
p2327
F0.086995904221802145
sg1312
F3.9382482671707626e-05
sg380
F3.9382482671707626e-05
sS'.'
F0.19210775047258979
sS'Sorriso'
p2328
F3.9382482671707626e-05
sg800
F3.9382482671707626e-05
sS'linda'
p2329
F3.9382482671707626e-05
sg2284
F3.9382482671707626e-05
sS'todos'
p2330
F3.9382482671707626e-05
sg5
F3.9382482671707626e-05
sg2189
F3.9382482671707626e-05
sg1798
F0.22373188405797101
sS'balne\xc3\xa1rio'
p2331
F3.9382482671707626e-05
sS'\xc3\xa1rea'
p2332
F3.9382482671707626e-05
sS'coming'
p2333
F0.20557655954631379
sS'Boa'
p2334
F3.9382482671707626e-05
sg1853
F3.9382482671707626e-05
sg842
F3.9382482671707626e-05
sS'casa'
p2335
F3.9382482671707626e-05
sS'SP'
p2336
F0.092155009451795847
sS'dia'
p2337
F3.9382482671707626e-05
sg1036
F3.9382482671707626e-05
sS'um'
p2338
F3.9382482671707626e-05
sS'dobro'
p2339
F3.9382482671707626e-05
sg859
F3.9382482671707626e-05
sS'Roupa'
p2340
F3.9382482671707626e-05
sS'fessis'
p2341
F3.9382482671707626e-05
sg333
F3.9382482671707626e-05
sg1169
F0.052693761814744798
ssg1076
(dp2342
S'frasco'
p2343
F0.5
sg5
F0.5
ssS'ei'
p2344
(dp2345
g1391
F0.5
sg5
F0.5
ssS'eh'
p2346
(dp2347
S'em'
p2348
F0.5
sg5
F0.5
ssS'Liindo'
p2349
(dp2350
S'n\xc3\xa9'
p2351
F0.5
sg5
F0.5
ssS'Se'
p2352
(dp2353
S'n\xc3\xa3o'
p2354
F0.5
sg5
F0.5
ssS'eu'
p2355
(dp2356
g751
F0.125
sg1250
F0.125
sg2143
F0.125
sS'retornar'
p2357
F0.125
sg1264
F0.125
sS'te'
p2358
F0.25
sg5
F0.125
ssS'Quanto'
p2359
(dp2360
g5
F1
ssS'es'
p2361
(dp2362
S'!'
F0.99911894273127755
sS'tu'
p2363
F0.0004405286343612335
sg5
F0.0004405286343612335
ssS'comenzamoos'
p2364
(dp2365
S'!'
F0.5
sg5
F0.5
ssS'aproveita'
p2366
(dp2367
g1776
F0.5
sg5
F0.5
ssS'bowieinfo'
p2368
(dp2369
g1351
F0.5
sg5
F0.5
ssg1577
(dp2370
S'vai'
p2371
F0.5
sg5
F0.5
ssg236
(dp2372
S'coisas'
p2373
F0.20000000000000001
sS'a'
F0.20000000000000001
sS'te'
p2374
F0.20000000000000001
sS'parte'
p2375
F0.20000000000000001
sg5
F0.20000000000000001
ssS'Fot\xc3\xa3o'
p2376
(dp2377
S'!'
F0.99977983267283133
sg5
F0.00022016732716864817
ssS'blogspot'
p2378
(dp2379
g5
F0.00013199577613516366
sS'.'
F0.99986800422386479
ssS'@patriciasveiga'
p2380
(dp2381
S'n\xc3\xa3o'
p2382
F0.5
sg5
F0.5
ssS'G'
(dp2383
g5
F0.00058343057176196028
sS'.'
F0.99941656942823809
ssS'Rejuvenescimento'
p2384
(dp2385
S','
F0.5
sg5
F0.5
ssS'colinas'
p2386
(dp2387
g5
F0.5
sS'suaves'
p2388
F0.5
ssS'org'
p2389
(dp2390
g5
F0.00023607176581680832
sS'.'
F0.99976392823418314
ssg975
(dp2391
g5
F0.33333333333333331
sS'e'
F0.33333333333333331
sg1055
F0.33333333333333331
ssg1162
(dp2392
S'de'
p2393
F0.33333333333333331
sS'que'
p2394
F0.33333333333333331
sg5
F0.33333333333333331
ssS'Siga'
p2395
(dp2396
S'@boysdoinsta'
p2397
F0.00054466230936819177
sg5
F0.00018155410312273057
sS'tamb\xc3\xa9m'
p2398
F0.25671750181554104
sS'@fotos'
p2399
F0.74255628177196809
ssS'@wilsonfaria'
p2400
(dp2401
S','
F0.5
sg5
F0.5
ssg1586
(dp2402
S'\xc3\xa0'
p2403
F0.5
sg5
F0.5
ssg2317
(dp2404
S'por'
p2405
F0.5
sg5
F0.5
ssS'castelo'
p2406
(dp2407
g874
F0.5
sg5
F0.5
ssg983
(dp2408
S','
F0.5
sg5
F0.5
ssg1591
(dp2409
S'e'
F0.5
sg5
F0.5
ssS'registrar'
p2410
(dp2411
g780
F0.5
sg5
F0.5
ssS'@acaminhodalua'
p2412
(dp2413
g5
F1
ssg2219
(dp2414
g5
F1
ssS'@luamsapiens'
p2415
(dp2416
S'essa'
p2417
F0.5
sg5
F0.5
ssS'@marielarocha6319'
p2418
(dp2419
g1714
F0.5
sg5
F0.5
ssS'ensaio'
p2420
(dp2421
g5
F0.5
sg574
F0.5
ssS'Daisy'
p2422
(dp2423
g5
F1
ssg293
(dp2424
S'e'
F0.5
sg5
F0.5
ssS'Pq'
p2425
(dp2426
g1837
F0.5
sg5
F0.5
ssg702
(dp2427
S'que'
p2428
F0.5
sg5
F0.5
ssg909
(dp2429
S's\xc3\xa3o'
p2430
F0.5
sg5
F0.5
ssS'Bjao'
p2431
(dp2432
g5
F1
ssg953
(dp2433
S'Apenas'
p2434
F0.5
sg5
F0.5
ssS'luvas'
p2435
(dp2436
S'!'
F0.5
sg5
F0.5
ssS'city'
p2437
(dp2438
g5
F1
ssS'Pr\xc3\xa9'
p2439
(dp2440
g41
F0.5
sg5
F0.5
ssS'bbbegin'
p2441
(dp2442
S'-D'
p2443
F5.6149181730414246e-05
sS'Vai'
p2444
F2.4077693709440072e-08
sg2
F2.4077693709440072e-08
sS'Hoje'
p2445
F7.2233081128320209e-08
sg1843
F2.4077693709440072e-08
sg12
F0.00036571608975268524
sS'Colete'
p2446
F2.4077693709440072e-08
sS'/'
F0.00026384336766804433
sS'@mahhalcom'
p2447
F7.3461043507501658e-05
sS'Uauuu'
p2448
F3.4334791229661543e-05
sS'Lindinho'
p2449
F2.4077693709440072e-08
sS'@doutoraceciliasiqueira'
p2450
F2.4077693709440072e-08
sg1514
F2.4077693709440072e-08
sS'Fomo'
p2451
F3.9367029214934519e-05
sS'@fuckethy'
p2452
F2.4077693709440072e-08
sS'0'
F9.1326692239906198e-05
sg1885
F2.4077693709440072e-08
sS'Kkk'
p2453
F0.00070403176406402769
sS'Eita'
p2454
F6.3781810636306756e-05
sS'@studiodaysantos'
p2455
F2.4077693709440072e-08
sS'Facebook'
p2456
F5.5113840900908326e-05
sg1903
F2.4077693709440072e-08
sS'juliaboutique'
p2457
F2.4077693709440072e-08
sS'@'
F5.5547239387678248e-05
sS'45hotmail'
p2458
F9.6310774837760288e-08
sS'@tagstagram'
p2459
F0.00038596543016232432
sS'7'
F6.7152687755628364e-05
sg309
F2.4077693709440072e-08
sS'P'
F0.00039875068552203705
sS'@modaoxe'
p2460
F4.8155387418880144e-08
sS'@BrazilRepost'
p2461
F6.4696762997265472e-05
sS'rsrsrsrs'
p2462
F3.6983337537699947e-05
sS'@principaprih'
p2463
F2.4077693709440072e-08
sS'Uau'
p2464
F0.00033894169434778786
sS'0687'
p2465
F5.2633838448835997e-05
sg1937
F2.4077693709440072e-08
sS'p'
F0.00020073573245560188
sg51
F4.8155387418880144e-08
sg58
F2.4077693709440072e-08
sS'Tenho'
p2466
F2.4077693709440072e-08
sS'mooui'
p2467
F0.00011889565153721507
sg1950
F5.6751124073150252e-05
sS'instagram'
p2468
F0.00010630301772717792
sS'@jayneferreira'
p2469
F2.4077693709440072e-08
sS'Osss'
p2470
F3.2312264958068579e-05
sg71
F2.4077693709440072e-08
sg1966
F2.4077693709440072e-08
sg1973
F4.9383349798061588e-05
sg79
F3.958372845831948e-05
sS'N\xc3\xa3o'
p2471
F8.1406682431616885e-05
sS'@e'
p2472
F0.00010139116821045214
sS'@o'
p2473
F7.9480466934861671e-05
sg1985
F6.5683948439352515e-05
sS'Tamarindo'
p2474
F2.4077693709440072e-08
sg893
F2.4077693709440072e-08
sg1987
F0.0002660103601018939
sg1994
F2.4077693709440072e-08
sg97
F7.0234632550436691e-05
sS';'
F4.0185670801055479e-05
sS'Rsrsrsrs'
p2475
F5.8725494957324337e-05
sg2007
F4.3050916352478851e-05
sS'Caixa'
p2476
F2.4077693709440072e-08
sS'tags'
p2477
F0.00016182617942114673
sS'Good'
p2478
F5.4535976251881763e-05
sS'K'
F3.3154984237898981e-05
sS'Eternize'
p2479
F7.2233081128320209e-08
sS'Fica'
p2480
F2.4077693709440072e-08
sS'Yum'
p2481
F3.423848045482378e-05
sg121
F0.00030797778023744797
sg2025
F0.0011796625256003069
sS'Amor'
p2482
F2.4077693709440072e-08
sS'Mande'
p2483
F2.4077693709440072e-08
sS'Hahahah'
p2484
F0.00010676049390765727
sS'vendato'
p2485
F0.00013623159100801193
sg128
F2.4077693709440072e-08
sS'@apezinho202'
p2486
F2.4077693709440072e-08
sS'k'
F5.7208600253629609e-05
sS'30'
p2487
F2.4077693709440072e-08
sg134
F4.0570913900406523e-05
sS'@kvramarcelo'
p2488
F2.4077693709440072e-08
sS'Ser\xc3\xa3o'
p2489
F2.4077693709440072e-08
sS'Repost'
p2490
F2.4077693709440072e-08
sg2062
F5.1767041475296153e-05
sg2064
F7.2233081128320209e-08
sg2066
F0.00013156051842838054
sg141
F5.4006266990274078e-05
sS'Top'
p2491
F0.00023482974674816901
sg156
F5.118917682626959e-05
sg2084
F2.4077693709440072e-08
sS'hahahahaha'
p2492
F3.3949548130310498e-05
sS'&'
F0.46739628659842553
sS'Hum'
p2493
F9.3012130799567002e-05
sg169
F0.00045167345629538628
sg1604
F2.4077693709440072e-08
sg171
F5.1454031457073436e-05
sg2099
F0.00011393564663307041
sS'Fa'
p2494
F2.4077693709440072e-08
sg176
F2.4077693709440072e-08
sS'6'
F8.0756584701461995e-05
sg2105
F2.4077693709440072e-08
sg182
F7.7289396807302631e-05
sS'Depois'
p2495
F2.4077693709440072e-08
sg185
F2.4077693709440072e-08
sg2108
F5.5691705549934889e-05
sS'Em'
p2496
F2.4077693709440072e-08
sg1717
F3.8789164565907956e-05
sg194
F7.3581431976048857e-05
sg196
F2.4077693709440072e-08
sg203
F0.00015660131988619823
sS'Chegaram'
p2497
F2.4077693709440072e-08
sg206
F9.2193489213446029e-05
sS'So'
p2498
F0.0040641943096849367
sg2119
F1.685438559660805e-07
sS'V'
F0.00013526848325963432
sS'Cudo'
p2499
F0.00010254689750850526
sS'Adorei'
p2500
F2.4077693709440072e-08
sg2352
F2.4077693709440072e-08
sg1558
F2.4077693709440072e-08
sS'Beautiful'
p2501
F2.4077693709440072e-08
sS'@rodrigovaiano'
p2502
F2.4077693709440072e-08
sg230
F3.3179061931608417e-05
sS'Olha'
p2503
F7.2233081128320209e-08
sS'Muhte'
p2504
F0.00073239528725374807
sS'@top'
p2505
F8.9713486761373707e-05
sS'Grow'
p2506
F2.4077693709440072e-08
sS'v'
F5.6293647892670887e-05
sg251
F5.3596946197213598e-05
sS'@annerosaria'
p2507
F2.4077693709440072e-08
sS'@rayssaalcantaras'
p2508
F2.4077693709440072e-08
sg261
F2.4077693709440072e-08
sg2110
F2.4077693709440072e-08
sg269
F2.4077693709440072e-08
sg272
F0.00023499829060413509
sg274
F9.4601258584390036e-05
sS'Meninas'
p2509
F2.4077693709440072e-08
sS'perdeu'
p2510
F2.4077693709440072e-08
sg1908
F2.4077693709440072e-08
sS'puraemocaomultimarcas'
p2511
F8.1527070900164084e-05
sg31
F6.0170156579890738e-05
sS'Feriadao'
p2512
F2.4077693709440072e-08
sS'Ya'
p2513
F2.4077693709440072e-08
sS'ISA\xc3\x8dAS'
p2514
F4.0932079306048125e-05
sS'rsrsrs'
p2515
F6.1542585121328818e-05
sS'1'
F0.00040137515413636598
sg933
F2.4077693709440072e-08
sS'Fala'
p2516
F4.8155387418880144e-08
sg2182
F0.0001579737484276363
sS'A'
F0.00026210977372096464
sS'@sanchesdiegu'
p2517
F2.4077693709440072e-08
sS'Sigam'
p2518
F2.4077693709440072e-08
sS'fb'
p2519
F4.8396164355974545e-05
sS'Dailydose'
p2520
F1.685438559660805e-07
sg2422
F4.7601600463563021e-05
sS'hahahaha'
p2521
F0.00010086145894884446
sS'5cm'
p2522
F2.4077693709440072e-08
sg994
F5.0442768321276951e-05
sS'fspina'
p2523
F4.9311116716933267e-05
sS'a'
F0.00035675918769277355
sS'Ol\xc3\xa1'
p2524
F2.4077693709440072e-08
sS'Fabivlb'
p2525
F2.4077693709440072e-08
sS'Hahahahah'
p2526
F4.5025287236652937e-05
sS'Enhorabuena'
p2527
F0.00083645907946594805
sg2225
F8.0371341602110958e-05
sS'Muhtesem'
p2528
F0.00013418498704270953
sS'Ehhh'
p2529
F2.4077693709440072e-08
sS'Desejo'
p2530
F2.4077693709440072e-08
sS'Horse'
p2531
F3.5899841320775148e-05
sg2241
F2.4077693709440072e-08
sS'@mazafra'
p2532
F2.4077693709440072e-08
sg2244
F0.0013889458393227599
sS'PoshLittleK'
p2533
F5.97849134805397e-05
sS'Conhe\xc3\xa7a'
p2534
F3.1301001822272094e-07
sg2249
F3.4912655878688106e-05
sS'Jo\xc3\xa3o'
p2535
F2.4077693709440072e-08
sS'5745'
p2536
F4.8251698193717904e-05
sS'dressyou'
p2537
F6.4455986060171075e-05
sg2166
F2.4077693709440072e-08
sS'@talitadriely'
p2538
F2.4077693709440072e-08
sg2259
F2.4077693709440072e-08
sg359
F9.8477767271609894e-05
sg370
F2.4077693709440072e-08
sS','
F0.00042302100078115264
sg521
F0.0001059900077089552
sg1122
F2.4077693709440072e-08
sS'Considerando'
p2539
F7.146259492961813e-05
sS'2015'
p2540
F5.0033447528216471e-05
sS'2017'
p2541
F4.9985292140797586e-05
sS'2016'
p2542
F8.3862607189979764e-05
sg535
F4.3484314839248767e-05
sS'com/floripaoncars'
p2543
F0.00012922498213856486
sS'@gialves'
p2544
F2.4077693709440072e-08
sS'Rowling'
p2545
F2.4077693709440072e-08
sS'cual'
p2546
F2.4077693709440072e-08
sS'L'
F0.00044635228598560007
sg546
F2.4077693709440072e-08
sS'Hehehehe'
p2547
F4.5603151885679493e-05
sS'@fatmah'
p2548
F2.4077693709440072e-08
sg2299
F0.00041290836942318781
sS'Hora'
p2549
F2.4077693709440072e-08
sg2301
F2.4077693709440072e-08
sS'Hehehe'
p2550
F0.00024706121515256457
sS'Cal\xc3\xa7a'
p2551
F2.4077693709440072e-08
sS'l'
F0.00014196208211085867
sg2312
F2.4077693709440072e-08
sS'WhatsApp'
p2552
F2.4077693709440072e-08
sS'h'
F3.9463339989772275e-05
sS'em'
p2553
F5.2537527673998235e-05
sS'@thalitammachado'
p2554
F2.4077693709440072e-08
sg584
F0.00011516360901225187
sg586
F6.5563559970805316e-05
sS'90darajeh'
p2555
F0.00010736243625039328
sS'Mum'
p2556
F3.5731297464809065e-05
sg2359
F8.0299108520982644e-05
sS'Sucesso'
p2557
F0.00018031784818999669
sg605
F0.0011502155061936616
sg612
F0.00068631058149387983
sg617
F0.00010781991243087264
sS'Tenha'
p2558
F5.3163547710443676e-05
sg619
F2.4077693709440072e-08
sg2376
F0.00010933680713456736
sS'petstoree'
p2559
F0.00010991467178359393
sg2380
F2.4077693709440072e-08
sS'Cool'
p2560
F8.4007073352236405e-05
sS'Coisas'
p2561
F2.4077693709440072e-08
sS'Galera'
p2562
F2.4077693709440072e-08
sg636
F5.6245492505252009e-05
sS'G'
F4.1245089324270842e-05
sS'Minha'
p2563
F6.7778707792073798e-05
sg2003
F2.4077693709440072e-08
sg641
F2.4077693709440072e-08
sS'@netadasbruxas'
p2564
F2.4077693709440072e-08
sg149
F6.1638895896166588e-05
sg2389
F0.0001019690328594787
sg2395
F0.00013252362617675816
sg2400
F2.4077693709440072e-08
sS'Pensa'
p2565
F2.4077693709440072e-08
sg1052
F2.4077693709440072e-08
sg661
F4.0546836206697081e-05
sg767
F2.4077693709440072e-08
sS'Eu'
p2566
F0.00053339314874522594
sS'@daniellegurgel'
p2567
F2.4077693709440072e-08
sg2415
F2.4077693709440072e-08
sS'DESTAQUE'
p2568
F7.1895993416388053e-05
sg669
F3.6381395194963949e-05
sS'Beleza'
p2569
F2.4077693709440072e-08
sg2418
F2.4077693709440072e-08
sg678
F5.8581028795067696e-05
sS'@meiramouro'
p2570
F2.4077693709440072e-08
sg736
F2.4077693709440072e-08
sS'eleeess'
p2571
F2.4077693709440072e-08
sS'art'
p2572
F5.7112289478791847e-05
sS'hehe'
p2573
F6.5659870745643072e-05
sS'Coloque'
p2574
F2.4077693709440072e-08
sg692
F0.0005234731389369366
sg2439
F2.4077693709440072e-08
sS'Segue'
p2575
F0.00077472387279494369
sS'@afonsakelly'
p2576
F2.4077693709440072e-08
sS'xD'
p2577
F4.9190728248386069e-05
sS'Cheers'
p2578
F9.4673491665518364e-05
sS'MARAVILHOSA'
p2579
F5.484898627010448e-05
sS'2'
F0.0003811258137267269
sS'@luisacheiz'
p2580
F2.4077693709440072e-08
sS'Parab\xc3\xa9ns'
p2581
F4.8155387418880144e-08
sS'Amanh\xc3\xa3'
p2582
F2.4077693709440072e-08
sS'B'
F6.6069191538703552e-05
sS'segue'
p2583
F5.9881224255377456e-05
sS'Kk'
p2584
F0.00011114263416277537
sS'@keythdosanjos'
p2585
F2.4077693709440072e-08
sS'XD'
p2586
F7.6350366752634473e-05
sS'AHNF'
p2587
F2.4077693709440072e-08
sS'As\xc3\xad'
p2588
F0.00012920090444485543
sS'Visite'
p2589
F5.7810542596365615e-05
sS'R'
F0.0001597795754558443
sS'Aguardaremos'
p2590
F2.4077693709440072e-08
sS'grace'
p2591
F2.4077693709440072e-08
sS'rss'
p2592
F3.9704116926866679e-05
sS'11'
p2593
F8.8605912850739466e-05
sS'10'
p2594
F9.1784168420385549e-05
sS'12'
p2595
F8.1093672413394161e-05
sS'OMG'
p2596
F7.5892890572155109e-05
sS'14'
p2597
F5.2513449980288799e-05
sS'r'
F0.0001080366116742576
sS'@osananpereirapereirasilva'
p2598
F2.4077693709440072e-08
sS'Qto'
p2599
F6.1590740508747703e-05
sS'Pensei'
p2600
F2.4077693709440072e-08
sS'Hahahahaha'
p2601
F0.00020085612092414907
sS'pra'
p2602
F2.4077693709440072e-08
sS'Mais'
p2603
F3.6116540564160109e-05
sS'@katnisspaulino'
p2604
F2.4077693709440072e-08
sS'o-o'
p2605
F4.7360823526468617e-05
sS'Essa'
p2606
F2.4077693709440072e-08
sS'Agr\xc3\xb3nomos'
p2607
F2.4077693709440072e-08
sg794
F5.313947001673424e-05
sS'Do'
p2608
F2.4077693709440072e-08
sS'Pho'
p2609
F7.2233081128320209e-08
sg803
F3.3877315049182178e-05
sS'-ALAGOAS'
p2610
F2.4077693709440072e-08
sS'De'
p2611
F2.4077693709440072e-08
sS'-'
F9.4625336278099479e-05
sS'Da'
p2612
F2.4077693709440072e-08
sS'Aaaah'
p2613
F2.4077693709440072e-08
sg812
F2.4077693709440072e-08
sS'so'
p2614
F0.00029719097345561881
sS'Dr'
p2615
F8.5692511911897209e-05
sg823
F2.4077693709440072e-08
sS'@amandalifestyle'
p2616
F2.4077693709440072e-08
sS'M'
F9.857407804644765e-05
sg1362
F2.4077693709440072e-08
sS'@a'
p2617
F0.00013666498949478184
sg1627
F2.4077693709440072e-08
sS'br/ocaprichoatelie'
p2618
F3.1758478002751452e-05
sS'@senaloureiro78'
p2619
F2.4077693709440072e-08
sS'Al\xc3\xb4'
p2620
F2.4077693709440072e-08
sS'@jadu'
p2621
F2.4077693709440072e-08
sS'T\xc3\xa1'
p2622
F2.4077693709440072e-08
sS'1919'
p2623
F5.9688602705701938e-05
sS'Google'
p2624
F2.4077693709440072e-08
sS'kk'
p2625
F6.8284339359972048e-05
sS'Prague'
p2626
F8.6679697353984252e-05
sg855
F5.97849134805397e-05
sS'@zeeba'
p2627
F2.4077693709440072e-08
sS'@janainaheredia'
p2628
F2.4077693709440072e-08
sS'fontana'
p2629
F2.4077693709440072e-08
sS'Gaass'
p2630
F2.4077693709440072e-08
sS'Aquele'
p2631
F2.4077693709440072e-08
sS'maquinaeestrada'
p2632
F2.4077693709440072e-08
sg1097
F2.4077693709440072e-08
sS'pernambucorunning'
p2633
F5.3163547710443676e-05
sS'JV'
p2634
F2.4077693709440072e-08
sS'Amiga'
p2635
F2.4077693709440072e-08
sS'@sanderssonalmeidaf'
p2636
F2.4077693709440072e-08
sS'@m'
p2637
F7.4207452012494304e-05
sS'estou'
p2638
F2.4077693709440072e-08
sS'Caracaaasss'
p2639
F2.4077693709440072e-08
sS'Ops'
p2640
F2.4077693709440072e-08
sg888
F0.0002110891407506611
sS'RIO'
p2641
F3.1999254939845855e-05
sS'tuningpeugeot'
p2642
F5.7208600253629609e-05
sS'Opa'
p2643
F0.00013738732030606506
sS'USELORENASHOES'
p2644
F0.00018443513381431094
sS'8'
F0.00016697880587496691
sS'Compartilhe'
p2645
F7.1197740298814291e-05
sS'victoriasfashion'
p2646
F5.7401221803305128e-05
sg899
F5.5619472468806568e-05
sg831
F2.4077693709440072e-08
sg928
F2.4077693709440072e-08
sS'H'
F4.6734803490023176e-05
sg936
F2.4077693709440072e-08
sS'de'
p2647
F6.618958000725075e-05
sS'Pilsen'
p2648
F2.4077693709440072e-08
sg991
F2.4077693709440072e-08
sS'Keep'
p2649
F0.00012568556116327717
sg1019
F2.4077693709440072e-08
sS'ingressonacional'
p2650
F6.0266467354728501e-05
sg99
F0.00013666498949478184
sS'@amandafpinho'
p2651
F2.4077693709440072e-08
sS'prawda'
p2652
F2.4077693709440072e-08
sS'Paulina'
p2653
F2.4077693709440072e-08
sS'Feliz'
p2654
F0.0002797105678225653
sS'Random'
p2655
F8.4753481857229051e-05
sS'Lindona'
p2656
F0.00055347394529889891
sS'Preparando'
p2657
F2.4077693709440072e-08
sg2378
F0.00018238852984900854
sg1045
F9.6310774837760288e-08
sS'x'
F4.9142572860967184e-05
sS'@umatleta'
p2658
F2.4077693709440072e-08
sS'Trevosa'
p2659
F2.4077693709440072e-08
sg1057
F0.0007913134037607479
sS'Ps'
p2660
F7.2835023471056211e-05
sg2425
F2.4077693709440072e-08
sg2431
F8.6294454254633214e-05
sS'Caminhada'
p2661
F2.4077693709440072e-08
sS'@falandodegames'
p2662
F0.00030154903601702744
sS'@feramosthings'
p2663
F2.4077693709440072e-08
sS'com-'
p2664
F3.5153432815782502e-05
sS'Tmj'
p2665
F7.3148033489278935e-05
sS'MOOUI'
p2666
F5.8388407245392171e-05
sS'9911'
p2667
F4.7649755850981899e-05
sS'03'
p2668
F5.6895590235406892e-05
sS'00'
p2669
F5.0394612933858073e-05
sg1085
F5.8966271894418734e-05
sS'Para'
p2670
F0.00019312718124341882
sS'Omosumo'
p2671
F2.4077693709440072e-08
sg1093
F5.2802382304802074e-05
sS'@araujomandy'
p2672
F2.4077693709440072e-08
sS'@GreatCaptures'
p2673
F3.7874212204949234e-05
sS'Final'
p2674
F2.4077693709440072e-08
sS'Qual'
p2675
F2.4077693709440072e-08
sS'3'
F0.0013971563328776791
sg1102
F2.4077693709440072e-08
sg341
F2.4077693709440072e-08
sg5
F2.4077693709440072e-08
sS'C'
F0.00013016401219323302
sg1113
F2.4077693709440072e-08
sg1369
F2.4077693709440072e-08
sS'Obg'
p2676
F5.0466846014986393e-05
sS'11993130618'
p2677
F0.00013688168873816681
sS'Oba'
p2678
F0.0001007651481740067
sS'@shadeolveira'
p2679
F2.4077693709440072e-08
sS'S'
F0.0002988041789341513
sS'@camilabasso'
p2680
F2.4077693709440072e-08
sS'come'
p2681
F2.4077693709440072e-08
sS'Obs'
p2682
F8.0443574683239285e-05
sS'Perdicontatos'
p2683
F2.4077693709440072e-08
sS'WWW'
p2684
F0.00012503546343312229
sS'Link'
p2685
F0.00018583164004945846
sg1128
F2.4077693709440072e-08
sg119
F7.94323115474428e-05
sS's'
F0.00025989462589969616
sS'@anusca2013'
p2686
F4.8155387418880144e-08
sg1142
F2.4077693709440072e-08
sS'Yes'
p2687
F5.1141021438850712e-05
sg1145
F0.020694464733245519
sS'amados'
p2688
F2.4077693709440072e-08
sS'hehehe'
p2689
F5.8701417263614895e-05
sS'co'
p2690
F3.7248192168503793e-05
sg2023
F2.4077693709440072e-08
sS'Fossis'
p2691
F2.4077693709440072e-08
sS'NADA'
p2692
F2.4077693709440072e-08
sS'Hey'
p2693
F3.5008966653525862e-05
sS'Lol'
p2694
F4.0017126945089396e-05
sS'Gosto'
p2695
F2.4077693709440072e-08
sS'Enfim'
p2696
F2.4077693709440072e-08
sS'COM'
p2697
F0.00081515032053309361
sS'Deus'
p2698
F2.4077693709440072e-08
sg1213
F6.2288993626321464e-05
sg1215
F9.9368641938859181e-05
sS'pq'
p2699
F2.4077693709440072e-08
sS'pt'
p2700
F3.4744112022722022e-05
sS'Relax'
p2701
F0.00077144930645045985
sS'\xc3\x80s'
p2702
F2.4077693709440072e-08
sS'.'
F0.44009849028767234
sg1221
F2.4077693709440072e-08
sS'frete'
p2703
F7.5724346716189025e-05
sS"X'mas"
p2704
F3.1782555696460894e-05
sS'ah'
p2705
F2.4077693709440072e-08
sg1229
F2.4077693709440072e-08
sg1232
F2.4077693709440072e-08
sg1235
F2.4077693709440072e-08
sS'recomendo'
p2706
F5.2513449980288799e-05
sg1238
F2.8893232451328084e-07
sS'Boomsmas'
p2707
F2.4077693709440072e-08
sS'c'
F7.3725898138305497e-05
sS'N'
F4.7914610481785745e-05
sg1126
F2.4077693709440072e-08
sg2093
F7.2233081128320209e-08
sS'@crisberger'
p2708
F2.4077693709440072e-08
sS'@nwalmn'
p2709
F2.4077693709440072e-08
sS'Provocando'
p2710
F2.4077693709440072e-08
sS'Ola'
p2711
F2.4077693709440072e-08
sS'Www'
p2712
F0.00019004523644861049
sg532
F2.4077693709440072e-08
sS'Neste'
p2713
F2.4077693709440072e-08
sg1255
F2.4077693709440072e-08
sS'A\xc3\xad'
p2714
F4.8155387418880144e-08
sS'n'
F5.1839274556424473e-05
sS'Pense'
p2715
F2.4077693709440072e-08
sS'hahaha'
p2716
F0.00027426900904423183
sg1266
F2.4077693709440072e-08
sS'Hehe'
p2717
F0.00022312798760538115
sg1269
F7.2570168840252372e-05
sS'Tira'
p2718
F2.4077693709440072e-08
sS'estacaofashioncarioca'
p2719
F5.0659467564661912e-05
sg1276
F0.00010567699769073247
sg1282
F2.4077693709440072e-08
sg543
F2.4077693709440072e-08
sg1291
F5.5089763207198883e-05
sS'Tudo'
p2720
F3.2215954183230816e-05
sS'@mcbinhokanalha'
p2721
F2.4077693709440072e-08
sg1298
F2.4077693709440072e-08
sS'@ossa1422'
p2722
F4.8155387418880144e-08
sg1305
F2.4077693709440072e-08
sS'samiabijouterias'
p2723
F7.7867261456329194e-05
sS'Toda'
p2724
F2.4077693709440072e-08
sS'BOCOM'
p2725
F2.4077693709440072e-08
sS'OTratamento'
p2726
F2.4077693709440072e-08
sS'ATEN\xc3\x87\xc3\x83O'
p2727
F2.4077693709440072e-08
sS'9'
F0.0001001632058312707
sS'msousa'
p2728
F2.4077693709440072e-08
sS'Festa'
p2729
F2.4077693709440072e-08
sS'I'
F9.9585341182244135e-05
sS'@lailanovelino'
p2730
F2.4077693709440072e-08
sS'Mas'
p2731
F6.6478512331764032e-05
sS'000'
p2732
F0.00014075819742538666
sS'Com'
p2733
F3.6333239807545071e-05
sS'Col'
p2734
F2.4077693709440072e-08
sS'//'
p2735
F2.4077693709440072e-08
sS'entra'
p2736
F0.00017311861777087411
sg1346
F5.4222966233659039e-05
sg643
F4.8155387418880144e-08
sS'entre'
p2737
F9.8670388821285419e-05
sS'i'
F5.1165099132560154e-05
sS'Voro'
p2738
F2.4077693709440072e-08
sS'Need'
p2739
F3.3106828850480096e-05
sS'Casual'
p2740
F9.734611566726621e-05
sS'@iaradbastos'
p2741
F2.4077693709440072e-08
sS'D\xc3\xa3o'
p2742
F2.4077693709440072e-08
sS'Uma'
p2743
F4.8155387418880144e-08
sS'@lnovum'
p2744
F0.0010933439936519642
sS'P\xc3\xb3par\xc3\xa1'
p2745
F2.4077693709440072e-08
sS'j\xc3\xa1'
p2746
F2.4077693709440072e-08
sS'BR'
p2747
F0.00020403437649379517
sS'to'
p2748
F2.4077693709440072e-08
sS'arrozdefyesta'
p2749
F9.166377995183835e-05
sg1389
F0.00013461838552947944
sS'@julidamianis'
p2750
F2.4077693709440072e-08
sS'@sisenorbrasil'
p2751
F2.4077693709440072e-08
sS'4'
F0.00014412907454470827
sg1399
F0.00053180402096040288
sg1785
F2.4077693709440072e-08
sS'@alemaoferraz'
p2752
F2.4077693709440072e-08
sS'Grata'
p2753
F2.4077693709440072e-08
sS'Gente'
p2754
F6.4383752979042748e-05
sS'Ok'
p2755
F0.00011227428576711905
sS'D'
F0.00067771484483960967
sS'Oi'
p2756
F4.8155387418880144e-08
sS'Oh'
p2757
F6.3348412149536834e-05
sg1341
F5.313947001673424e-05
sg1430
F2.4077693709440072e-08
sS'T'
F0.00013076595453596904
sS'Jorgito'
p2758
F2.4077693709440072e-08
sS'Estupenda'
p2759
F0.00016673802893787249
sS'Os'
p2760
F2.4077693709440072e-08
sS'd'
F0.00019230853965729786
sg1448
F3.47922674101409e-05
sS'Eba'
p2761
F5.3885878521726879e-05
sS'Show'
p2762
F0.0003195591509116886
sg1453
F2.4077693709440072e-08
sS'Curtindo'
p2763
F2.4077693709440072e-08
sg1463
F2.4077693709440072e-08
sS't'
F6.2192682851483708e-05
sS'Ent\xc3\xa3o'
p2764
F0.0001595387985187499
sg1473
F0.0040794836451904315
sS'Nem'
p2765
F2.4077693709440072e-08
sS'Coliseu-italy'
p2766
F2.4077693709440072e-08
sS'Brides'
p2767
F2.4077693709440072e-08
sS'Poxa'
p2768
F2.4077693709440072e-08
sS'Confira'
p2769
F3.3467994256121698e-05
sS'tumblr'
p2770
F5.8749572651033773e-05
sS'Disse'
p2771
F2.4077693709440072e-08
sg1491
F2.4077693709440072e-08
sS'Ahhh'
p2772
F5.4415587783334564e-05
sS'Email'
p2773
F3.3130906544189539e-05
sS'o/'
p2774
F0.00017124055766153779
sg1499
F2.4077693709440072e-08
sS'@nutrigustavomelegassi'
p2775
F2.4077693709440072e-08
sS'Meuu'
p2776
F2.4077693709440072e-08
sS'Mel'
p2777
F2.4077693709440072e-08
sS'Quando'
p2778
F4.8155387418880144e-08
sS'Meus'
p2779
F5.4439665477044e-05
sS'Meu'
p2780
F2.4077693709440072e-08
sS'Espero'
p2781
F2.4077693709440072e-08
sS'Seguir'
p2782
F4.8155387418880144e-08
sS'Hahahahahaha'
p2783
F6.1927828220679869e-05
sS'915'
p2784
F9.6310774837760288e-08
sS'Simples'
p2785
F2.4077693709440072e-08
sS'Confiram'
p2786
F2.4077693709440072e-08
sS'Ilha'
p2787
F2.4077693709440072e-08
sS'Look'
p2788
F4.8155387418880144e-08
sS'credite'
p2789
F6.1903750526970427e-05
sS'Me'
p2790
F5.2031896106099992e-05
sS'O'
F0.0011436422958109845
sS'Um'
p2791
F3.3371683481283942e-05
sS'\xc3\xa0nims'
p2792
F2.4077693709440072e-08
sg1541
F2.4077693709440072e-08
sS'Bom'
p2793
F1.2038846854720037e-07
sS'br'
p2794
F0.0073211598600671857
sS'Dra'
p2795
F3.6429550582382827e-05
sS'Boa'
p2796
F4.8155387418880144e-08
sg2308
F2.4077693709440072e-08
sS'@monickaraujo'
p2797
F7.2233081128320209e-08
sg1217
F2.4077693709440072e-08
sS'Oss'
p2798
F0.00019088795572844088
sS'Tags'
p2799
F7.4014830462818779e-05
sS'@slimmoxmoore'
p2800
F2.4077693709440072e-08
sS'o'
F0.0045849948246201259
sS'Looks'
p2801
F2.4077693709440072e-08
sS'Use'
p2802
F5.8364329551682735e-05
sS'No'
p2803
F0.00038957708421874038
sS'Na'
p2804
F4.8155387418880144e-08
sg1612
F2.4077693709440072e-08
sS'Ela'
p2805
F6.5515404583386431e-05
sS'Reta'
p2806
F2.4077693709440072e-08
sS'Ele'
p2807
F2.4077693709440072e-08
sg1617
F8.3308820234662644e-05
sS'igseguidores'
p2808
F0.0024040373284190441
sS'@socorro'
p2809
F5.3861800828017437e-05
sS'Princesa'
p2810
F2.4077693709440072e-08
sS'Empty'
p2811
F4.4640044137301893e-05
sS'Gat\xc3\xa3o'
p2812
F0.00013288479158239975
sS'@rioenquadrado'
p2813
F2.4077693709440072e-08
sS'tamo'
p2814
F2.4077693709440072e-08
sS'Amo'
p2815
F2.4077693709440072e-08
sS'Amb'
p2816
F2.4077693709440072e-08
sS'Menuda'
p2817
F2.4077693709440072e-08
sg1650
F6.4720840690974914e-05
sS'Como'
p2818
F5.0033447528216471e-05
sS'Hahahaha'
p2819
F0.00064412646211494079
sS'@maynabandeirakoch'
p2820
F2.4077693709440072e-08
sg1657
F2.4077693709440072e-08
sS'J'
F5.0587234483533592e-05
sS'Deu'
p2821
F4.8155387418880144e-08
sg1668
F2.4077693709440072e-08
sS'Vdd'
p2822
F2.4077693709440072e-08
sg1675
F5.7064134091372969e-05
sS'115'
p2823
F2.4077693709440072e-08
sg1677
F4.8155387418880144e-08
sS'Tem'
p2824
F2.4077693709440072e-08
sS'official'
p2825
F2.4077693709440072e-08
sS'Casolas'
p2826
F2.4077693709440072e-08
sS'@fernandaley'
p2827
F2.4077693709440072e-08
sg1688
F2.4077693709440072e-08
sg1690
F2.4077693709440072e-08
sS'fico'
p2828
F2.4077693709440072e-08
sg1488
F2.4077693709440072e-08
sS'm'
F0.00029666126419401111
sS'@elementhosdecor'
p2829
F9.6310774837760288e-08
sg1704
F2.4077693709440072e-08
sg2355
F5.8316174164263851e-05
sS'as'
p2830
F2.4077693709440072e-08
sS'Pagamentos'
p2831
F2.4077693709440072e-08
sS'Lindo'
p2832
F2.4077693709440072e-08
sS'Te'
p2833
F2.4077693709440072e-08
sS'@natinemoto'
p2834
F2.4077693709440072e-08
sS'Brasil'
p2835
F0.00010444903531155104
sS'Curtiu'
p2836
F7.1775604947840854e-05
sS'F'
F4.8396164355974545e-05
sg1494
F2.4077693709440072e-08
sS'Kkkk'
p2837
F0.0010873968033057325
sS'ENVIAMOS'
p2838
F6.5033850709197638e-05
sS'5'
F0.00012062924548429476
sS'J\xc3\xa1'
p2839
F2.4077693709440072e-08
sg1787
F2.1669924338496065e-07
sS'Maria'
p2840
F2.4077693709440072e-08
sS'@romaniellolauralice'
p2841
F2.4077693709440072e-08
sS'E'
F0.00037765862583256753
sg1795
F2.4077693709440072e-08
sS'S\xc3\xa3o'
p2842
F4.8155387418880144e-08
sS'Fernando'
p2843
F5.4897141657523364e-05
sS'Est\xc3\xa0s'
p2844
F4.8155387418880144e-08
sS'Sand\xc3\xa1lia'
p2845
F2.4077693709440072e-08
sS'@lucassilva13'
p2846
F2.4077693709440072e-08
sS'U'
F6.2409382094868662e-05
sS'Nose'
p2847
F2.4077693709440072e-08
sg1810
F4.8155387418880144e-08
sS'e'
F0.000393935146780149
sS'Ai'
p2848
F3.5321976671748585e-05
sS'Ah'
p2849
F0.00037060386157570157
sS'@lolamou'
p2850
F2.4077693709440072e-08
sS'youtube'
p2851
F0.00016977181834526195
sS'Site'
p2852
F5.2176362268356633e-05
sg1241
F2.4077693709440072e-08
sS'u'
F0.00023482974674816901
sS'Av'
p2853
F0.00020810350673069054
sS'Coronarita'
p2854
F2.4077693709440072e-08
sS'Shooting'
p2855
F2.4077693709440072e-08
ssg2577
(dp2856
g5
F1
ssg2579
(dp2857
g5
F1
ssS'2'
(dp2858
S'Envie'
p2859
F0.000116412997495731
sS','
F7.7042554045583255e-05
sS'/'
F5.1464631960977457e-08
sS'anos'
p2860
F0.00011358244273787725
sS'2'
F0.99903164148502221
sS'.'
F0.00066121759143463832
sg5
F5.1464631960977457e-08
ssg919
(dp2861
S'em'
p2862
F0.5
sg5
F0.5
ssg2582
(dp2863
S'tem'
p2864
F0.5
sg5
F0.5
ssS'that'
p2865
(dp2866
S'we'
p2867
F0.33333333333333331
sS'two'
p2868
F0.33333333333333331
sg5
F0.33333333333333331
ssS'emocionante'
p2869
(dp2870
S'!'
F0.5
sg5
F0.5
ssg2585
(dp2871
S'vc'
p2872
F0.5
sg5
F0.5
ssg1735
(dp2873
g5
F0.33333333333333331
sS'j\xc3\xa1'
p2874
F0.33333333333333331
sS','
F0.33333333333333331
ssg2587
(dp2875
S'!'
F0.5
sg5
F0.5
ssg738
(dp2876
g5
F0.5
sg529
F0.5
ssg387
(dp2877
S's\xc3\xadrio'
p2878
F0.99933199732798927
sg5
F0.0006680026720106881
ssg1553
(dp2879
S'em'
p2880
F0.5
sg5
F0.5
ssg1621
(dp2881
g5
F1
ssg1005
(dp2882
g5
F0.5
sS'da'
p2883
F0.5
ssS'peco'
p2884
(dp2885
S'a'
F0.5
sg5
F0.5
ssg2593
(dp2886
S'!'
F0.00027151778441487917
sS'/Abril-'
p2887
F0.00027151778441487917
sg2147
F0.00027151778441487917
sg5
F0.00027151778441487917
sS'.'
F0.99891392886234043
ssg2594
(dp2888
S'minutos'
p2889
F0.00026191723415400735
sS'de'
p2890
F0.00026191723415400735
sS','
F0.00026191723415400735
sS'/'
F0.00026191723415400735
sS'.'
F0.99842849659507593
sg572
F0.00026191723415400735
sg5
F0.00026191723415400735
ssg2595
(dp2891
g5
F0.00029682398337785694
sS'.'
F0.99970317601662217
ssg2038
(dp2892
g5
F1
ssg2597
(dp2893
g5
F0.00045808520384791571
sS'.'
F0.99954191479615206
ssS'17'
p2894
(dp2895
g5
F0.33333333333333331
sS','
F0.33333333333333331
sS'.'
F0.33333333333333331
ssg982
(dp2896
g5
F1
ssg479
(dp2897
S'de'
p2898
F0.5
sg5
F0.5
ssS'r'
(dp2899
g5
F0.00014166312508853945
sS'e'
F0.36421589460263493
sS'.'
F0.63564244227227651
ssg2598
(dp2900
g5
F0.5
sg20
F0.5
ssg2599
(dp2901
S'?'
F0.9996092223524814
sg5
F0.00039077764751856197
ssg481
(dp2902
S','
F0.5
sg5
F0.5
ssg482
(dp2903
g1321
F0.25
sS'good'
p2904
F0.25
sg1288
F0.25
sg5
F0.25
ssg830
(dp2905
g314
F0.33333333333333331
sS'QUE'
p2906
F0.33333333333333331
sg5
F0.33333333333333331
ssS'sai'
p2907
(dp2908
S'com'
p2909
F0.5
sg5
F0.5
ssg2601
(dp2910
g5
F0.00041339396444811904
sS'.'
F0.99958660603555183
ssg1148
(dp2911
S'relaxa'
p2912
F0.00019782393669634025
sg2907
F0.00019782393669634025
sg191
F0.56221562809099901
sS'curtir'
p2913
F0.00019782393669634025
sS'lembrar'
p2914
F0.00019782393669634025
sS'gente'
p2915
F0.00019782393669634025
sg1285
F0.0003956478733926805
sg1422
F0.00019782393669634025
sS'chegar'
p2916
F0.00019782393669634025
sg1805
F0.00019782393669634025
sS'Dona'
p2917
F0.00019782393669634025
sS'dar'
p2918
F0.00019782393669634025
sS'bombar'
p2919
F0.43461918892185952
sS'eu'
p2920
F0.00019782393669634025
sg201
F0.00019782393669634025
sS'manter'
p2921
F0.00019782393669634025
sg5
F0.00019782393669634025
ssg2603
(dp2922
S'tem'
p2923
F0.00066622251832111927
sS'us'
p2924
F0.00066622251832111927
sS'um'
p2925
F0.00066622251832111927
sS'uma'
p2926
F0.99666888740839443
sS'sobre'
p2927
F0.00066622251832111927
sg5
F0.00066622251832111927
ssg485
(dp2928
S'do'
p2929
F0.99933199732798927
sg5
F0.0006680026720106881
ssg904
(dp2930
g5
F0.5
sS'.'
F0.5
ssg1775
(dp2931
g166
F0.33333333333333331
sg5
F0.33333333333333331
sS'.'
F0.33333333333333331
ssg1733
(dp2932
S'passado'
p2933
F0.5
sg5
F0.5
ssS'@marciocigano'
p2934
(dp2935
g5
F1
ssg2238
(dp2936
S'j\xc3\xa1'
p2937
F0.5
sg5
F0.5
ssg764
(dp2938
g1061
F0.33333333333333331
sS'galera'
p2939
F0.33333333333333331
sg5
F0.33333333333333331
ssS'dius'
p2940
(dp2941
S'tu'
p2942
F0.5
sg5
F0.5
ssS'@nilceaguiar'
p2943
(dp2944
g566
F0.5
sg5
F0.5
ssg2608
(dp2945
g1554
F0.5
sg5
F0.5
ssg2609
(dp2946
S'!'
F0.75
sg5
F0.25
ssg1765
(dp2947
S'de'
p2948
F0.5
sg5
F0.5
ssg2611
(dp2949
S'R'
F0.66666666666666663
sg5
F0.33333333333333331
ssg1243
(dp2950
g5
F0.33333333333333331
sS'uma'
p2951
F0.33333333333333331
sS's\xc3\xa9rie'
p2952
F0.33333333333333331
ssg1741
(dp2953
S'de'
p2954
F0.5
sg5
F0.5
ssg2613
(dp2955
S'olha'
p2956
F0.5
sg5
F0.5
ssg965
(dp2957
S','
F0.5
sg5
F0.5
ssS'Sistema'
p2958
(dp2959
S'Q'
F0.5
sg5
F0.5
ssS'ganhe'
p2960
(dp2961
S'seguidores'
p2962
F0.99966755319148937
sg5
F0.00033244680851063829
ssg2615
(dp2963
g5
F0.00028089887640449441
sS'.'
F0.99971910112359552
ssS'p\xc3\xa9'
p2964
(dp2965
S','
F0.5
sg5
F0.5
ssg2619
(dp2966
S'@patysilvapersonal'
p2967
F0.5
sg5
F0.5
ssg1119
(dp2968
g5
F0.5
sS'no'
p2969
F0.5
ssS'autorizamos'
p2970
(dp2971
S'repostar'
p2972
F0.99970414201183433
sg5
F0.00029585798816568048
ssS'deixei'
p2973
(dp2974
S'meu'
p2975
F0.5
sg5
F0.5
ssg2529
(dp2976
S'viado'
p2977
F0.5
sg5
F0.5
ssS'dirglielo'
p2978
(dp2979
S'?'
F0.5
sg5
F0.5
ssS'sala'
p2980
(dp2981
g5
F0.5
sS'ta'
p2982
F0.5
ssg1141
(dp2983
g5
F0.5
sS'\xc3\xaam'
p2984
F0.5
ssg1016
(dp2985
S'de'
p2986
F0.5
sg5
F0.5
ssS'enviar'
p2987
(dp2988
g5
F0.5
sS'sense'
p2989
F0.5
ssS'seguir'
p2990
(dp2991
S'o'
F0.99966318625799933
sg5
F0.00033681374200067362
ssS'alguns'
p2992
(dp2993
S'instantes'
p2994
F0.99955810870525852
sg5
F0.00044189129474149361
ssg990
(dp2995
g5
F0.5
sS'at\xc3\xa9'
p2996
F0.5
ssS'inteiro'
p2997
(dp2998
S'!'
F0.5
sg5
F0.5
ssS'@claudinhamos'
p2999
(dp3000
g364
F0.5
sg5
F0.5
ssS'olha'
p3001
(dp3002
g158
F0.20000000000000001
sS'quem'
p3003
F0.20000000000000001
sS'que'
p3004
F0.20000000000000001
sS'oq'
p3005
F0.20000000000000001
sg5
F0.20000000000000001
ssS'dizia'
p3006
(dp3007
S'Hollywoodland'
p3008
F0.5
sg5
F0.5
ssg1990
(dp3009
S'!'
F0.99886813808715336
sS'Yemanj\xc3\xa1'
p3010
F0.00056593095642331638
sg5
F0.00056593095642331638
ssS'preciso'
p3011
(dp3012
g1131
F0.5
sg5
F0.5
ssS'cheap'
p3013
(dp3014
S'and'
p3015
F0.5
sg5
F0.5
ssS'cazuela'
p3016
(dp3017
S';'
F0.5
sg5
F0.5
ssS'lindeza'
p3018
(dp3019
g5
F0.5
sg1779
F0.5
ssS'qualquer'
p3020
(dp3021
S'dia'
p3022
F0.00066225165562913907
sg85
F0.99867549668874167
sg5
F0.00066225165562913907
ssg1716
(dp3023
g1952
F0.20000000000000001
sS'aqui'
p3024
F0.20000000000000001
sg684
F0.20000000000000001
sS'fotografando'
p3025
F0.20000000000000001
sg5
F0.20000000000000001
ssg2639
(dp3026
g5
F0.5
sS'.'
F0.5
ssg392
(dp3027
S','
F0.99933199732798927
sg5
F0.0006680026720106881
ssg1540
(dp3028
S'!'
F0.5
sg5
F0.5
ssS'true'
p3029
(dp3030
S'!'
F0.7794467980237757
sg5
F1.1735298604672996e-05
sS'.'
F0.22054146667761962
ssS'dormindo'
p3031
(dp3032
S'pra'
p3033
F0.5
sg5
F0.5
ssg2022
(dp3034
S'!'
F0.5
sg5
F0.5
ssS'realmente'
p3035
(dp3036
S'se'
p3037
F0.5
sg5
F0.5
ssg2641
(dp3038
g5
F0.00075187969924812035
sS'Custom'
p3039
F0.99924812030075183
ssS'nadie'
p3040
(dp3041
g5
F0.5
sS'.'
F0.5
ssg2834
(dp3042
g2412
F0.5
sg5
F0.5
ssg881
(dp3043
g1354
F0.99955810870525852
sg5
F0.00044189129474149361
ssg2645
(dp3044
S'o'
F0.9996619337390128
sg5
F0.00033806626098715348
ssg970
(dp3045
S'com'
p3046
F0.5
sg5
F0.5
ssS'H'
(dp3047
S'A'
F0.00051466803911477102
sg5
F0.00051466803911477102
sS'.'
F0.99897066392177047
ssS'galeria'
p3048
(dp3049
S'@oceanobrasil'
p3050
F0.99929328621908131
sg5
F0.00070671378091872788
ssg714
(dp3051
S','
F0.5
sg5
F0.5
ssg2652
(dp3052
g5
F0.5
sS'@m'
p3053
F0.5
ssg1509
(dp3054
S'de'
p3055
F0.5
sg5
F0.5
ssg1588
(dp3056
S'oficial'
p3057
F0.5
sg5
F0.5
ssg2654
(dp3058
g1719
F0.99982785333103807
sS'dia'
p3059
F8.6073334480977787e-05
sg5
F8.6073334480977787e-05
ssS'morning'
p3060
(dp3061
S'!'
F0.99911777679752978
sS'sweet'
p3062
F0.00044111160123511248
sg5
F0.00044111160123511248
ssg410
(dp3063
S'Correia'
p3064
F0.5
sg5
F0.5
ssg1323
(dp3065
S'on'
p3066
F0.5
sg5
F0.5
ssg1466
(dp3067
g5
F0.5
sS'.'
F0.5
ssS'where'
p3068
(dp3069
S'you'
p3070
F0.5
sg5
F0.5
ssg2266
(dp3071
S'de'
p3072
F0.5
sg5
F0.5
ssS'@rayanmarchi'
p3073
(dp3074
g5
F1
ssS'up'
p3075
(dp3076
S'bitch'
p3077
F0.5
sg5
F0.5
ssg1572
(dp3078
S'Hotel'
p3079
F0.5
sg5
F0.5
ssg2326
(dp3080
S','
F0.5
sg5
F0.5
ssg2664
(dp3081
g5
F1
ssS'chuva'
p3082
(dp3083
g76
F0.5
sg5
F0.5
ssg2665
(dp3084
g5
F1
ssg1659
(dp3085
g2293
F0.5
sg5
F0.5
ssg2666
(dp3086
g5
F0.00041220115416323167
sS'.'
F0.99958779884583682
ssg497
(dp3087
S','
F0.5
sg5
F0.5
ssg427
(dp3088
g2048
F0.5
sg5
F0.5
ssS'Helena'
p3089
(dp3090
S'constitu\xc3\xadda'
p3091
F0.5
sg5
F0.5
ssS'certeza'
p3092
(dp3093
g2220
F0.5
sg5
F0.5
ssg1740
(dp3094
S'or'
p3095
F0.5
sg5
F0.5
ssg2675
(dp3096
S'a'
F0.5
sg5
F0.5
ssS'3'
(dp3097
S'Sua'
p3098
F0.18992443324937028
sS'sabores'
p3099
F8.3963056255247689e-05
sS'de'
p3100
F8.3963056255247689e-05
sS'.'
F0.80973971452560878
sS';'
F8.3963056255247689e-05
sg5
F8.3963056255247689e-05
ssg226
(dp3101
S'por'
p3102
F0.5
sg5
F0.5
ssS'estar'
p3103
(dp3104
S'se'
p3105
F0.33333333333333331
sS'mais'
p3106
F0.33333333333333331
sg5
F0.33333333333333331
ssg2663
(dp3107
S'oi'
p3108
F0.5
sg5
F0.5
ssg2680
(dp3109
g5
F0.5
sS'vos'
p3110
F0.5
ssg1382
(dp3111
S'a'
F0.00047014574518100609
sg696
F0.0061118946873530795
sS'ganhar'
p3112
F0.99200752233192291
sS'o'
F0.00047014574518100609
sS'Ficou'
p3113
F0.00047014574518100609
sg5
F0.00047014574518100609
ssS'amore'
p3114
(dp3115
S'stupendo'
p3116
F0.33333333333333331
sg5
F0.33333333333333331
sS'.'
F0.33333333333333331
ssg2681
(dp3117
S'todo'
p3118
F0.5
sg5
F0.5
ssg441
(dp3119
S','
F0.99933199732798927
sg5
F0.0006680026720106881
ssg923
(dp3120
S','
F0.5
sg5
F0.5
ssg2683
(dp3121
g5
F1
ssg2684
(dp3122
g5
F0.00019252984212552945
sS'.'
F0.99980747015787452
ssS'celebrar'
p3123
(dp3124
S'a'
F0.33333333333333331
sS'esse'
p3125
F0.33333333333333331
sg5
F0.33333333333333331
ssS'casquinha'
p3126
(dp3127
S'\xc3\xa9'
p3128
F0.5
sg5
F0.5
ssS'@maryogarcia'
p3129
(dp3130
S'a'
F0.5
sg5
F0.5
ssg447
(dp3131
S'@wiviamaral'
p3132
F0.5
sg5
F0.5
ssS's'
(dp3133
g5
F8.7919817126780379e-05
sS'2'
F0.19395111658167752
sS't'
F0.22604184983295234
sS'.'
F0.57991911376824334
ssS'ousa'
p3134
(dp3135
g5
F0.5
sS'.'
F0.5
ssS'berry'
p3136
(dp3137
S','
F0.99933199732798927
sg5
F0.0006680026720106881
ssg1897
(dp3138
S'JoJo'
p3139
F0.5
sg5
F0.5
ssS'@fanysousa91'
p3140
(dp3141
g5
F0.5
sS'.'
F0.5
ssS'mund\xc3\xa3o'
p3142
(dp3143
S'!'
F0.5
sg5
F0.5
ssS'mann'
p3144
(dp3145
S'@rafaramosilva'
p3146
F0.5
sg5
F0.5
ssS'comer'
p3147
(dp3148
g1538
F0.5
sg5
F0.5
ssS'voc\xc3\xaa'
p3149
(dp3150
S'tem'
p3151
F0.090909090909090912
sS'encontra'
p3152
F0.090909090909090912
sS'est\xc3\xa1'
p3153
F0.18181818181818182
sS'arrasar'
p3154
F0.090909090909090912
sS'toda'
p3155
F0.090909090909090912
sg3134
F0.090909090909090912
sS'@pguerrero09'
p3156
F0.090909090909090912
sS'@anagabi2'
p3157
F0.090909090909090912
sS'tamb\xc3\xa9m'
p3158
F0.090909090909090912
sg5
F0.090909090909090912
ssS'@rafamazzali'
p3159
(dp3160
S'bom'
p3161
F0.5
sg5
F0.5
ssg632
(dp3162
S'6'
F0.047619047619047616
sS'conferir'
p3163
F0.047619047619047616
sS'tercer'
p3164
F0.047619047619047616
sS'mim'
p3165
F0.047619047619047616
sS'mais'
p3166
F0.047619047619047616
sS'na'
p3167
F0.047619047619047616
sS'30'
p3168
F0.047619047619047616
sS'dia'
p3169
F0.047619047619047616
sS'favor'
p3170
F0.095238095238095233
sS'R'
F0.095238095238095233
sS'esse'
p3171
F0.047619047619047616
sS'4'
F0.047619047619047616
sS'exemplo'
p3172
F0.047619047619047616
sS'BCAAs'
p3173
F0.047619047619047616
sg2386
F0.047619047619047616
sS'aqui'
p3174
F0.047619047619047616
sg5
F0.047619047619047616
sS'email'
p3175
F0.047619047619047616
sg1684
F0.047619047619047616
ssg2636
(dp3176
S'Linda'
p3177
F0.5
sg5
F0.5
ssS'69'
p3178
(dp3179
S','
F0.5
sg5
F0.5
ssg2697
(dp3180
g5
F5.7080883612078318e-05
sS'.'
F0.99994291911638788
ssg2698
(dp3181
S'te'
p3182
F0.5
sg5
F0.5
ssg467
(dp3183
S'Pept\xc3\xaddeo'
p3184
F0.00066755674232309744
sg5
F0.00066755674232309744
sS'NO'
p3185
F0.99866488651535379
ssg1646
(dp3186
g5
F0.5
sS'Tanto'
p3187
F0.5
ssS'concedi'
p3188
(dp3189
S'ao'
p3190
F0.5
sg5
F0.5
ssg3164
(dp3191
S'libro'
p3192
F0.5
sg5
F0.5
ssg2810
(dp3193
g2150
F0.5
sg5
F0.5
ssg3064
(dp3194
S'e'
F0.5
sg5
F0.5
ssg2434
(dp3195
S'R'
F0.5
sg5
F0.5
ssS'pessoa'
p3196
(dp3197
g603
F0.00033670033670033672
sS'que'
p3198
F0.99932659932659929
sg5
F0.00033670033670033672
ssS'qu\xc3\xa9'
p3199
(dp3200
S'bonito'
p3201
F0.5
sg5
F0.5
ssg633
(dp3202
g5
F0.5
sS'da'
p3203
F0.5
ssS'estilo'
p3204
(dp3205
S','
F0.5
sg5
F0.5
ssS'bizu'
p3206
(dp3207
g5
F0.5
sS'no'
p3208
F0.5
ssg1883
(dp3209
S'devido'
p3210
F0.5
sg5
F0.5
ssS'hashtag'
p3211
(dp3212
S'para'
p3213
F0.99966318625799933
sg5
F0.00033681374200067362
ssg1175
(dp3214
S'sem'
p3215
F0.99925261584454406
sg5
F0.00074738415545590436
ssS'@joannabarbosa'
p3216
(dp3217
g5
F0.5
sS'.'
F0.5
ssS'casa'
p3218
(dp3219
S';'
F0.0004526935264825713
sS','
F0.99909461294703483
sg5
F0.0004526935264825713
ssg1150
(dp3220
g5
F1
ssg717
(dp3221
g5
F1
ssS'@andrebrigida'
p3222
(dp3223
S'e'
F0.5
sg5
F0.5
ssS'@babyboydaprince2013'
p3224
(dp3225
S'!'
F0.5
sg5
F0.5
ssS'zuando'
p3226
(dp3227
S'que'
p3228
F0.5
sg5
F0.5
ssS'sobrenome'
p3229
(dp3230
S'tb'
p3231
F0.5
sg5
F0.5
ssS'conversei'
p3232
(dp3233
S'com'
p3234
F0.5
sg5
F0.5
ssS'ein'
p3235
(dp3236
g1349
F0.5
sg5
F0.5
ssg568
(dp3237
S'do'
p3238
F0.5
sg5
F0.5
ssg486
(dp3239
S'!'
F0.5
sg5
F0.5
ssg2343
(dp3240
g5
F1
ssS'@paixoesporflores'
p3241
(dp3242
g5
F0.0003114294612270321
sS'.'
F0.99968857053877291
ssS'Sapatos'
p3243
(dp3244
S'@shoeshopvilavelha-'
p3245
F0.5
sg5
F0.5
ssS'cole\xc3\xa7\xc3\xa3o'
p3246
(dp3247
S'de'
p3248
F0.33333333333333331
sS'@dudanegretti'
p3249
F0.33333333333333331
sg5
F0.33333333333333331
ssg2722
(dp3250
g5
F1
ssg1118
(dp3251
S'de'
p3252
F0.5
sg5
F0.5
ssg1368
(dp3253
g5
F0.00029797377830750892
sS'.'
F0.99970202622169246
ssS'@boldrinvaleria'
p3254
(dp3255
g5
F1
ssg744
(dp3256
g5
F0.5
sS'&'
F0.5
ssg2330
(dp3257
S'os'
p3258
F0.5
sg5
F0.5
ssS'hor\xc3\xa1rio'
p3259
(dp3260
S'de'
p3261
F0.5
sg5
F0.5
ssS'guapissima'
p3262
(dp3263
S'!'
F0.66666666666666663
sg5
F0.33333333333333331
ssg2729
(dp3264
S'de'
p3265
F0.5
sg5
F0.5
ssg1636
(dp3266
S'nilzo'
p3267
F0.5
sg5
F0.5
ssS'I'
(dp3268
S'believe'
p3269
F0.00024172105390379503
sg5
F0.00024172105390379503
sS'.'
F0.9995165578921924
ssg346
(dp3270
g5
F0.5
sS'.'
F0.5
ssg2836
(dp3271
S'?'
F0.99966465459423204
sg5
F0.00033534540576794097
ssS'luta'
p3272
(dp3273
S','
F0.5
sg5
F0.5
ssS'Filho'
p3274
(dp3275
S'De'
p3276
F0.5
sg5
F0.5
ssg1011
(dp3277
S'Paulino'
p3278
F0.5
sg5
F0.5
ssg1766
(dp3279
S'na'
p3280
F0.33333333333333331
sS'por'
p3281
F0.33333333333333331
sg5
F0.33333333333333331
ssg1248
(dp3282
S'!'
F0.5
sg5
F0.5
ssS'tiver'
p3283
(dp3284
g1200
F0.5
sg5
F0.5
ssg1000
(dp3285
S'CINEC'
p3286
F0.5
sg5
F0.5
ssS'without'
p3287
(dp3288
S'giving'
p3289
F0.99970202622169246
sg5
F0.00029797377830750892
ssg321
(dp3290
S'800Kcal'
p3291
F0.5
sg5
F0.5
ssS'@mcdtalaber'
p3292
(dp3293
g1947
F0.5
sg5
F0.5
ssS'mano'
p3294
(dp3295
g3222
F0.5
sg5
F0.5
ssg2740
(dp3296
g5
F1
ssg2134
(dp3297
S'Moda'
p3298
F0.5
sg5
F0.5
ssg699
(dp3299
S','
F0.5
sg5
F0.5
ssS'PARA'
p3300
(dp3301
S'TODO'
p3302
F0.99962990377498151
sg5
F0.00037009622501850479
ssS'Jorge'
p3303
(dp3304
g1033
F0.5
sg5
F0.5
ssg308
(dp3305
S','
F0.5
sg5
F0.5
ssg1462
(dp3306
g5
F1
ssS'Ontem'
p3307
(dp3308
S'foi'
p3309
F0.5
sg5
F0.5
ssS'@leoeventos'
p3310
(dp3311
g5
F1
ssg3050
(dp3312
S'e'
F0.99929328621908131
sg5
F0.00070671378091872788
ssS'loja'
p3313
(dp3314
g5
F0.25
sS'@prataunica'
p3315
F0.25
sg1726
F0.25
sg1419
F0.25
ssg914
(dp3316
g5
F1
ssg2750
(dp3317
S'Amo'
p3318
F0.5
sg5
F0.5
ssg1247
(dp3319
S'isso'
p3320
F0.5
sg5
F0.5
ssS'rosa'
p3321
(dp3322
g5
F0.5
sS'.'
F0.5
ssg1736
(dp3323
S','
F0.5
sg5
F0.5
ssS'@corrakoruivo'
p3324
(dp3325
S'arrepiou'
p3326
F0.5
sg5
F0.5
ssS'4'
(dp3327
g1483
F0.0001669727834362999
sS'minutos'
p3328
F0.0001669727834362999
sg5
F0.0001669727834362999
sS'.'
F0.99949908164969115
ssS'hospedei'
p3329
(dp3330
S','
F0.5
sg5
F0.5
ssg1971
(dp3331
g5
F0.5
sS'no'
p3332
F0.5
ssS'v\xc3\xadtima'
p3333
(dp3334
S'de'
p3335
F0.5
sg5
F0.5
ssS'preparou'
p3336
(dp3337
S'uma'
p3338
F0.5
sg5
F0.5
ssg1157
(dp3339
S'!'
F0.33333333333333331
sg5
F0.33333333333333331
sS'da'
p3340
F0.33333333333333331
ssS'v\xc3\xa1lida'
p3341
(dp3342
S'para'
p3343
F0.5
sg5
F0.5
ssg399
(dp3344
S'beb\xc3\xaa'
p3345
F0.14285714285714285
sS'vida'
p3346
F0.14285714285714285
sg1823
F0.14285714285714285
sS','
F0.14285714285714285
sg1516
F0.14285714285714285
sg1204
F0.14285714285714285
sg5
F0.14285714285714285
ssS'lado'
p3347
(dp3348
g5
F0.5
sS'da'
p3349
F0.5
ssS'amb'
p3350
(dp3351
g5
F0.5
sS'sense'
p3352
F0.5
ssg1024
(dp3353
g1962
F0.5
sg5
F0.5
ssg1281
(dp3354
S'do'
p3355
F0.5
sg5
F0.5
ssg40
(dp3356
S'Gossip'
p3357
F0.5
sg5
F0.5
ssS'Volar'
p3358
(dp3359
S'y'
F0.33333333333333331
sS'!'
F0.33333333333333331
sg5
F0.33333333333333331
ssS'tanta'
p3360
(dp3361
g3018
F0.5
sg5
F0.5
ssS'postal'
p3362
(dp3363
g5
F0.5
sS'da'
p3364
F0.5
ssg3302
(dp3365
S'BRASIL'
p3366
F0.99962990377498151
sg5
F0.00037009622501850479
ssg406
(dp3367
g5
F0.5
sS'da'
p3368
F0.5
ssg2628
(dp3369
g739
F0.5
sg5
F0.5
ssg2762
(dp3370
S'!'
F0.80079861372711525
sS'de'
p3371
F7.5340917652377013e-05
sS'@zacgyn'
p3372
F7.5340917652377013e-05
sg5
F7.5340917652377013e-05
sS'.'
F0.19897536351992767
ssg1021
(dp3373
S'vai'
p3374
F0.5
sg5
F0.5
ssS'serious'
p3375
(dp3376
S'?'
F0.99984760743675705
sg5
F0.00015239256324291374
ssS't'
(dp3377
g5
F0.00019398642095053346
sS'e'
F0.49873908826382152
sS'.'
F0.5010669253152279
ssS'Music'
p3378
(dp3379
S'Bar'
p3380
F0.5
sg5
F0.5
ssg2797
(dp3381
g5
F1
ssg750
(dp3382
g2289
F0.5
sg5
F0.5
ssg1027
(dp3383
S'e'
F0.5
sg5
F0.5
ssg2765
(dp3384
S'peguei'
p3385
F0.5
sg5
F0.5
ssg2767
(dp3386
S'maids'
p3387
F0.5
sg5
F0.5
ssg418
(dp3388
S','
F0.5
sg5
F0.5
ssg1569
(dp3389
S'de'
p3390
F0.99940191387559807
sg5
F0.00059808612440191385
ssg2774
(dp3391
g5
F1
ssS'tava'
p3392
(dp3393
S'a\xc3\xad'
p3394
F0.5
sg5
F0.5
ssg2777
(dp3395
S','
F0.5
sg5
F0.5
ssS'definir'
p3396
(dp3397
S','
F0.5
sg5
F0.5
ssS'hoje'
p3398
(dp3399
S'a'
F0.20000000000000001
sS'!'
F0.20000000000000001
sS'\xc3\xa0'
p3400
F0.20000000000000001
sS'pra'
p3401
F0.20000000000000001
sg5
F0.20000000000000001
ssS'legal'
p3402
(dp3403
S'!'
F0.66666666666666663
sg5
F0.33333333333333331
ssg2780
(dp3404
g36
F0.5
sg5
F0.5
ssS'djfirestartapromo'
p3405
(dp3406
S'@gmail'
p3407
F0.99927325581395354
sg5
F0.00072674418604651162
ssg2781
(dp3408
S'que'
p3409
F0.5
sg5
F0.5
ssg2784
(dp3410
g5
F0.20000000000000001
sS'.'
F0.80000000000000004
ssg2787
(dp3411
g5
F0.5
sS'da'
p3412
F0.5
ssS'cliques'
p3413
(dp3414
g5
F0.071428571428571425
sS'.'
F0.9285714285714286
ssS'm\xc3\xa3es'
p3415
(dp3416
S'pra'
p3417
F0.5
sg5
F0.5
ssS'ch\xc3\xa1s'
p3418
(dp3419
S'tamb\xc3\xa9m'
p3420
F0.5
sg5
F0.5
ssS'assemble'
p3421
(dp3422
S'!'
F0.5
sg5
F0.5
ssg3407
(dp3423
g5
F0.00072621641249092229
sS'.'
F0.99927378358750907
ssg3066
(dp3424
g1660
F0.5
sg5
F0.5
ssg155
(dp3425
S'a'
F0.5
sg5
F0.5
ssg2141
(dp3426
S','
F0.5
sg5
F0.5
ssg3108
(dp3427
g850
F0.5
sg5
F0.5
ssS'oh'
p3428
(dp3429
S'!'
F0.5
sg5
F0.5
ssS'garante'
p3430
(dp3431
S'o'
F0.80000000000000004
sg5
F0.20000000000000001
ssg446
(dp3432
S','
F0.99933199732798927
sg5
F0.0006680026720106881
ssg1754
(dp3433
S'!'
F0.99850634802091109
sg3362
F0.0007468259895444362
sg5
F0.0007468259895444362
ssg19
(dp3434
S'Divas'
p3435
F0.5
sg5
F0.5
ssS'ou'
p3436
(dp3437
g5
F9.8376783079193308e-05
sg1869
F0.55887850467289724
sS'nos'
p3438
F9.8376783079193308e-05
sg2032
F0.30939498278406297
sS'at\xc3\xa9'
p3439
F0.13152975897688146
ssS'os'
p3440
(dp3441
g362
F0.1111111111111111
sg1655
F0.1111111111111111
sS'IGs'
p3442
F0.22222222222222221
sS'brasileiros'
p3443
F0.1111111111111111
sS'ossos'
p3444
F0.1111111111111111
sS'cardios'
p3445
F0.1111111111111111
sg1376
F0.1111111111111111
sg5
F0.1111111111111111
ssg1695
(dp3446
S'barriers'
p3447
F0.20000000000000001
sS'who'
p3448
F0.20000000000000001
sg3068
F0.20000000000000001
sg2894
F0.20000000000000001
sg5
F0.20000000000000001
ssg3005
(dp3449
S'achei'
p3450
F0.5
sg5
F0.5
ssg2702
(dp3451
S'22'
p3452
F0.5
sg5
F0.5
ssg2803
(dp3453
S'Box'
p3454
F5.4212295348585062e-05
sS'Essa'
p3455
F5.4212295348585062e-05
sS'Direct'
p3456
F0.1226282120784994
sS'dia'
p3457
F5.4212295348585062e-05
sg663
F0.59807004228559035
sg1041
F0.00016263688604575518
sS'doubt'
p3458
F0.27892225956847011
sg5
F5.4212295348585062e-05
ssg799
(dp3459
S'minha'
p3460
F0.25
sS'foto'
p3461
F0.25
sg5
F0.25
sg2277
F0.25
ssg2811
(dp3462
g5
F1
ssg161
(dp3463
g298
F0.5
sg5
F0.5
ssg3185
(dp3464
S'2'
F0.99866488651535379
sg1606
F0.00066755674232309744
sg5
F0.00066755674232309744
ssg3079
(dp3465
S'est\xc3\xa1'
p3466
F0.5
sg5
F0.5
ssg2817
(dp3467
g5
F0.5
sS'comida'
p3468
F0.5
ssg2589
(dp3469
S'www'
p3470
F0.99958368026644462
sg5
F0.00041631973355537054
ssS'DOLBY'
p3471
(dp3472
g5
F0.5
sS'ATOMOS'
p3473
F0.5
ssS'completa'
p3474
(dp3475
S'que'
p3476
F0.5
sg5
F0.5
ssg2972
(dp3477
S'a'
F0.99970414201183433
sg5
F0.00029585798816568048
ssg2616
(dp3478
S'deu'
p3479
F0.5
sg5
F0.5
ssS'completo'
p3480
(dp3481
S'semijoias'
p3482
F0.5
sg5
F0.5
ssS'chato'
p3483
(dp3484
S'n\xc3\xa3o'
p3485
F0.5
sg5
F0.5
ssg250
(dp3486
S'!'
F0.5
sg5
F0.5
ssS'@tassiagalvaoassis'
p3487
(dp3488
g356
F0.5
sg5
F0.5
ssg651
(dp3489
g5
F0.5
sS'no'
p3490
F0.5
ssg1164
(dp3491
g5
F0.5
sS'.'
F0.5
ssS'letreiro'
p3492
(dp3493
S'de'
p3494
F0.5
sg5
F0.5
ssS'responsabilidade'
p3495
(dp3496
g5
F0.00033681374200067362
sS'.'
F0.99966318625799933
ssg1552
(dp3497
S'o'
F0.5
sg5
F0.5
ssS'Nossa'
p3498
(dp3499
g2135
F0.5
sg5
F0.5
ssg1954
(dp3500
S'a'
F0.20000000000000001
sS'seu'
p3501
F0.20000000000000001
sS'que'
p3502
F0.20000000000000001
sS'www'
p3503
F0.20000000000000001
sg5
F0.20000000000000001
ssg2679
(dp3504
g2344
F0.5
sg5
F0.5
ssg391
(dp3505
S','
F0.5
sg5
F0.5
ssS'codigo'
p3506
(dp3507
g367
F0.5
sg5
F0.5
ssS'Pept\xc3\xaddeos'
p3508
(dp3509
S'e'
F0.5
sg5
F0.5
ssg1385
(dp3510
S'e'
F0.5
sg5
F0.5
ssg2176
(dp3511
S'em'
p3512
F0.5
sg5
F0.5
ssg160
(dp3513
g3235
F0.33333333333333331
sg5
F0.33333333333333331
sS'.'
F0.33333333333333331
ssS'ah'
p3514
(dp3515
S'S'
F0.33333333333333331
sS','
F0.33333333333333331
sg5
F0.33333333333333331
ssg2829
(dp3516
g5
F1
ssg114
(dp3517
S'!'
F0.5
sg5
F0.5
ssS'as'
p3518
(dp3519
S'mini'
p3520
F0.090909090909090912
sS'20'
p3521
F0.090909090909090912
sS'mais'
p3522
F0.090909090909090912
sS'22'
p3523
F0.090909090909090912
sS'semijoias'
p3524
F0.090909090909090912
sS'melhores'
p3525
F0.090909090909090912
sS'suas'
p3526
F0.090909090909090912
sS'cores'
p3527
F0.090909090909090912
sS'pernas'
p3528
F0.090909090909090912
sS'linhas'
p3529
F0.090909090909090912
sg5
F0.090909090909090912
ssS'at'
p3530
(dp3531
S'the'
p3532
F0.5
sg5
F0.5
ssg2725
(dp3533
g5
F1
ssS'@fersnanda'
p3534
(dp3535
S'@giselematias2015'
p3536
F0.5
sg5
F0.5
ssS'F'
(dp3537
g5
F0.00049726504226752855
sS'.'
F0.99950273495773245
ssg490
(dp3538
g5
F0.5
sS'.'
F0.5
ssS'5'
(dp3539
S'Valor'
p3540
F0.0003980099502487562
sS'de'
p3541
F0.0001990049751243781
sg3413
F0.0025870646766169153
sg5
F0.0001990049751243781
sS'.'
F0.99661691542288555
ssg1004
(dp3542
S'em'
p3543
F0.5
sg5
F0.5
ssS'you'
p3544
(dp3545
S'do'
p3546
F0.25
sS'live'
p3547
F0.25
sS'are'
p3548
F0.25
sg5
F0.25
ssg393
(dp3549
g1666
F0.99933199732798927
sg5
F0.0006680026720106881
ssg3315
(dp3550
g5
F0.5
sg2199
F0.5
ssg2265
(dp3551
S'com'
p3552
F0.5
sg5
F0.5
ssg1452
(dp3553
g5
F1
ssS'2005'
p3554
(dp3555
g5
F0.5
sS'.'
F0.5
ssg2843
(dp3556
S'Pessoa'
p3557
F0.99956159579131965
sg5
F0.00043840420868040335
ssg2847
(dp3558
g1460
F0.5
sg5
F0.5
ssg827
(dp3559
S'por'
p3560
F0.5
sg5
F0.5
ssS'grupo'
p3561
(dp3562
S'com'
p3563
F0.5
sg5
F0.5
ssg977
(dp3564
S'e'
F0.99933730947647448
sg5
F0.00066269052352551359
ssg2850
(dp3565
g5
F0.5
sg3114
F0.5
ssS'participamos'
p3566
(dp3567
S'de'
p3568
F0.5
sg5
F0.5
ssg3456
(dp3569
S'3'
F0.99955810870525852
sg5
F0.00044189129474149361
ssg2236
(dp3570
S'ritmo'
p3571
F0.5
sg5
F0.5
ssg962
(dp3572
g5
F0.5
sS'.'
F0.5
ssS'u'
(dp3573
S'.'
F0.45220353417074727
sg5
F0.00021290185224611454
sS'/'
F0.00021290185224611454
sS'n'
F0.54737066212476049
ssS'esgotou'
p3574
(dp3575
g5
F0.5
sS'nosso'
p3576
F0.5
ssg1784
(dp3577
S'@dilenolopesufc'
p3578
F0.5
sg5
F0.5
ssg3527
(dp3579
S'dos'
p3580
F0.33333333333333331
sg5
F0.33333333333333331
sS'desse'
p3581
F0.33333333333333331
ssg517
(dp3582
g5
F0.5
sS'.'
F0.5
ssS'@leandro'
p3583
(dp3584
g5
F0.5
sS'.'
F0.5
ssg2443
(dp3585
g5
F1
ssg2444
(dp3586
g90
F0.5
sg5
F0.5
ssS'QUADRA'
p3587
(dp3588
g5
F0.5
sS'NO'
p3589
F0.5
ssg2445
(dp3590
g5
F0.25
sS','
F0.25
sS'o'
F0.25
sS'foi'
p3591
F0.25
ssg2447
(dp3592
g5
F1
ssg2448
(dp3593
S'!'
F0.99929922915206726
sg5
F0.00070077084793272596
ssg730
(dp3594
g5
F0.16666666666666666
sS'@victoriaknl'
p3595
F0.66666666666666663
sS'.'
F0.16666666666666666
ssg3132
(dp3596
S','
F0.5
sg5
F0.5
ssg2942
(dp3597
S'!'
F0.16666666666666666
sS'n\xc3\xa3o'
p3598
F0.16666666666666666
sS'TOP'
p3599
F0.16666666666666666
sS'deu'
p3600
F0.16666666666666666
sS'?'
F0.16666666666666666
sg5
F0.16666666666666666
ssS'bebemos'
p3601
(dp3602
S'essa'
p3603
F0.5
sg5
F0.5
ssg138
(dp3604
S'be'
p3605
F0.00029761904761904765
sS'order-'
p3606
F0.00029761904761904765
sS'4'
F0.00029761904761904765
sS'aprendendo'
p3607
F0.00029761904761904765
sg1365
F0.99851190476190477
sg5
F0.00029761904761904765
ssS'@donaflorpalmas'
p3608
(dp3609
S'\xc3\xa9'
p3610
F0.5
sg5
F0.5
ssg373
(dp3611
S'Mira'
p3612
F0.5
sg5
F0.5
ssS'Vestido'
p3613
(dp3614
S'e'
F0.5
sg5
F0.5
ssg2455
(dp3615
g2282
F0.5
sg5
F0.5
ssg852
(dp3616
g5
F0.33333333333333331
sS'mundo'
p3617
F0.33333333333333331
sS'bem'
p3618
F0.33333333333333331
ssg2374
(dp3619
S'atura'
p3620
F0.10000000000000001
sS'e'
F0.10000000000000001
sS'amo'
p3621
F0.40000000000000002
sS'guarde'
p3622
F0.10000000000000001
sS'falo'
p3623
F0.10000000000000001
sS'abencoe'
p3624
F0.10000000000000001
sg5
F0.10000000000000001
ssS'tb'
p3625
(dp3626
S'meu'
p3627
F0.20000000000000001
sS'!'
F0.40000000000000002
sg3392
F0.20000000000000001
sg5
F0.20000000000000001
ssS'Ver\xc3\xa3o'
p3628
(dp3629
g1383
F0.5
sg5
F0.5
ssS'ta'
p3630
(dp3631
S'escura'
p3632
F0.25
sg5
F0.25
sS'faltando'
p3633
F0.25
sS'stressado'
p3634
F0.25
ssS'faz'
p3635
(dp3636
S'Bem'
p3637
F0.14285714285714285
sS'feliz'
p3638
F0.14285714285714285
sS'sempre'
p3639
F0.14285714285714285
sS'rod\xc3\xadzio'
p3640
F0.14285714285714285
sS'tempo'
p3641
F0.14285714285714285
sS'8'
F0.14285714285714285
sg5
F0.14285714285714285
ssg2878
(dp3642
S','
F0.99933199732798927
sg5
F0.0006680026720106881
ssg2458
(dp3643
g667
F0.80000000000000004
sg5
F0.20000000000000001
ssS'@stephanialmeida'
p3644
(dp3645
g5
F1
ssg2459
(dp3646
g5
F1
ssg198
(dp3647
S'!'
F0.5
sg5
F0.5
ssg216
(dp3648
g3644
F0.5
sg5
F0.5
ssg213
(dp3649
S'35'
p3650
F0.5
sg5
F0.5
ssg1438
(dp3651
g5
F1
ssS'entrevista'
p3652
(dp3653
g3474
F0.5
sg5
F0.5
ssS'vera'
p3654
(dp3655
S'!'
F0.5
sg5
F0.5
ssg403
(dp3656
S'Muito'
p3657
F0.5
sg5
F0.5
ssg3623
(dp3658
S'o'
F0.5
sg5
F0.5
ssg545
(dp3659
g1226
F0.5
sg5
F0.5
ssg2532
(dp3660
g2222
F0.5
sg5
F0.5
ssS'@juniorivalter'
p3661
(dp3662
S','
F0.5
sg5
F0.5
ssS'fala'
p3663
(dp3664
S'o'
F0.5
sg5
F0.5
ssS'Ana'
p3665
(dp3666
S','
F0.5
sg5
F0.5
ssg400
(dp3667
S'que'
p3668
F0.5
sg5
F0.5
ssg2464
(dp3669
S'!'
F0.80288393237675804
sg5
F7.1032817161528622e-05
sS'.'
F0.1970450348060804
ssg2465
(dp3670
g2163
F0.99954275262917236
sg5
F0.00045724737082761773
ssg1752
(dp3671
g5
F0.5
sg2997
F0.5
ssg948
(dp3672
S','
F0.5
sg5
F0.5
ssS'Ual'
p3673
(dp3674
S'muito'
p3675
F0.5
sg5
F0.5
ssg2466
(dp3676
S'varias'
p3677
F0.5
sg5
F0.5
ssg2388
(dp3678
S'e'
F0.5
sg5
F0.5
ssg459
(dp3679
g5
F1
ssg1566
(dp3680
S'para'
p3681
F0.5
sg5
F0.5
ssS'199'
p3682
(dp3683
g5
F0.5
sS'.'
F0.5
ssg2468
(dp3684
g5
F0.00022644927536231884
sS'.'
F0.99977355072463769
ssg2470
(dp3685
g5
F1
ssg725
(dp3686
S'!'
F0.95652173913043481
sg5
F0.043478260869565216
ssg424
(dp3687
S'a'
F0.5
sg5
F0.5
ssS'@thaysalins'
p3688
(dp3689
g3216
F0.5
sg5
F0.5
ssg779
(dp3690
g3544
F0.5
sg5
F0.5
ssg2617
(dp3691
g5
F0.00017614937466971993
sS'.'
F0.9998238506253303
ssS'sua'
p3692
(dp3693
S'\xc3\xa9'
p3694
F0.00022326412145568208
sS'foto'
p3695
F0.50524670685420858
sg3218
F0.49274391605269036
sg726
F0.00022326412145568208
sS'vida'
p3696
F0.00022326412145568208
sg1821
F0.00022326412145568208
sS'opini\xc3\xa3o'
p3697
F0.00022326412145568208
sg1333
F0.00022326412145568208
sg3246
F0.00022326412145568208
sS'visita'
p3698
F0.00022326412145568208
sg5
F0.00022326412145568208
ssg2472
(dp3699
g5
F0.00023741690408357076
sS'.'
F0.99976258309591648
ssg2473
(dp3700
g5
F0.00030284675953967292
sS'.'
F0.99969715324046038
ssg2637
(dp3701
g5
F0.00032425421530479895
sS'.'
F0.9996757457846952
ssg2474
(dp3702
S'\xc3\xa9'
p3703
F0.5
sg5
F0.5
ssS'demonho'
p3704
(dp3705
S'!'
F0.5
sg5
F0.5
ssg3473
(dp3706
g5
F1
ssS'dias'
p3707
(dp3708
S'de'
p3709
F0.25
sg5
F0.25
sS'para'
p3710
F0.25
sS'.'
F0.25
ssS'@talitascoralick'
p3711
(dp3712
S'?'
F0.5
sg5
F0.5
ssS'beleza'
p3713
(dp3714
S'em'
p3715
F0.5
sg5
F0.5
ssg2477
(dp3716
g5
F1
ssS'K'
(dp3717
g5
F0.00072568940493468795
sS'.'
F0.99927431059506533
ssg3677
(dp3718
S'regatas'
p3719
F0.5
sg5
F0.5
ssg1332
(dp3720
g5
F0.5
sS'.'
F0.5
ssg2482
(dp3721
S'em'
p3722
F0.5
sg5
F0.5
ssS'Mande'
p3723
(dp3724
S'um'
p3725
F0.00048685491723466409
sS'seu'
p3726
F0.99902629016553068
sg5
F0.00048685491723466409
ssg2484
(dp3727
g5
F1
ssg2486
(dp3728
S'@homesweetfamily'
p3729
F0.5
sg5
F0.5
ssS'@chaosfromyskin'
p3730
(dp3731
S'?'
F0.5
sg5
F0.5
ssS'surpresa'
p3732
(dp3733
S'boa'
p3734
F0.25
sg5
F0.25
sS'para'
p3735
F0.25
sg2934
F0.25
ssg2489
(dp3736
S'sete'
p3737
F0.5
sg5
F0.5
ssS'authorize'
p3738
(dp3739
g5
F0.00029797377830750892
sg1386
F0.99970202622169246
ssS'minutos'
p3740
(dp3741
S'link'
p3742
F0.25
sg5
F0.25
sS'e'
F0.25
sS'.'
F0.25
ssS'via'
p3743
(dp3744
S'whatsapp'
p3745
F0.99957264957264957
sg5
F0.00042735042735042735
ssS'@peruadalinguasolta'
p3746
(dp3747
S'@peruadalinguasolta'
p3748
F0.59999999999999998
sg1550
F0.20000000000000001
sg5
F0.20000000000000001
ssg2491
(dp3749
S'!'
F0.78193561615747387
sg5
F0.00010252204223908141
sS'.'
F0.21796186180028707
ssg1756
(dp3750
g742
F0.5
sg5
F0.5
ssS'Animal'
p3751
(dp3752
g3333
F0.5
sg5
F0.5
ssS'algooo'
p3753
(dp3754
S'!'
F0.5
sg5
F0.5
ssg1038
(dp3755
S'!'
F0.5
sg5
F0.5
ssg2868
(dp3756
g5
F0.33333333333333331
sg1480
F0.66666666666666663
ssS'diferente'
p3757
(dp3758
g5
F1
ssS'vanha'
p3759
(dp3760
S'luontokuvaaja'
p3761
F0.5
sg5
F0.5
ssS'6'
(dp3762
g5
F0.00029797377830750892
sg9
F0.00029797377830750892
sS'.'
F0.99940405244338493
ssg2495
(dp3763
S'de'
p3764
F0.5
sg5
F0.5
ssS'quiser'
p3765
(dp3766
g2169
F0.5
sg5
F0.5
ssg558
(dp3767
g5
F0.5
sS'da'
p3768
F0.5
ssg443
(dp3769
S','
F0.99933199732798927
sg5
F0.0006680026720106881
ssg3697
(dp3770
g1031
F0.5
sg5
F0.5
ssg2835
(dp3771
g5
F0.00010520778537611783
sS'com'
p3772
F0.31109942135718044
sS'se'
p3773
F0.00010520778537611783
sS'.'
F0.68869016307206732
ssg205
(dp3774
g5
F1
ssg2497
(dp3775
g1116
F0.5
sg5
F0.5
ssS'ate'
p3776
(dp3777
S'aqui'
p3778
F0.5
sg5
F0.5
ssg2498
(dp3779
g2001
F0.026754188487878861
sg3029
F0.97323988720111854
sg5
F5.9243110026303942e-06
ssg2962
(dp3780
S'e'
F0.99990103908955963
sg5
F9.8960910440376045e-05
ssg2500
(dp3781
S'a'
F0.5
sg5
F0.5
ssS'TODOS'
p3782
(dp3783
S'OS'
p3784
F0.99962990377498151
sg5
F0.00037009622501850479
ssS'Sheila'
p3785
(dp3786
S'139'
p3787
F0.5
sg5
F0.5
ssg2503
(dp3788
S'q'
F0.25
sg1609
F0.25
sS'as'
p3789
F0.25
sg5
F0.25
ssg3622
(dp3790
S'por'
p3791
F0.5
sg5
F0.5
ssg2336
(dp3792
S'e'
F0.99957264957264957
sg5
F0.00042735042735042735
ssg3479
(dp3793
g5
F0.25
sS'trabalho'
p3794
F0.25
sg1712
F0.25
sS'ser'
p3795
F0.25
ssS'minhas'
p3796
(dp3797
g1308
F0.5
sg5
F0.5
ssg2906
(dp3798
S'VOC\xc3\x8a'
p3799
F0.5
sg5
F0.5
ssS'v'
(dp3800
g694
F0.00020755500207555002
sg5
F0.00020755500207555002
sS'e'
F0.51411374014113742
sg2229
F0.00020755500207555002
sS'.'
F0.48526359485263593
ssS'ser\xc3\xa1'
p3801
(dp3802
S'o'
F0.5
sg5
F0.5
ssS'delicada'
p3803
(dp3804
g5
F1
ssg2508
(dp3805
S'te'
p3806
F0.5
sg5
F0.5
ssS'galleries'
p3807
(dp3808
S'@apreciadoresnatureza'
p3809
F0.99968857053877291
sg5
F0.0003114294612270321
ssg2149
(dp3810
g3341
F0.5
sg5
F0.5
ssg329
(dp3811
g5
F0.5
sS'.'
F0.5
ssg1202
(dp3812
S'de'
p3813
F0.33333333333333331
sg5
F0.33333333333333331
sS'.'
F0.33333333333333331
ssS'sense'
p3814
(dp3815
S'filtres'
p3816
F0.25
sS'comentaris'
p3817
F0.25
sS'voler'
p3818
F0.25
sg5
F0.25
ssS'dress'
p3819
(dp3820
S'na'
p3821
F0.5
sg5
F0.5
ssS'Preowned'
p3822
(dp3823
g5
F0.5
sS'No'
p3824
F0.5
ssS'!'
(dp3825
g5
F1
ssg2512
(dp3826
S'em'
p3827
F0.5
sg5
F0.5
ssS'blusa'
p3828
(dp3829
S'linda'
p3830
F0.5
sg5
F0.5
ssg2514
(dp3831
S'Cap'
p3832
F0.99941211052322165
sg5
F0.00058788947677836567
ssg2515
(dp3833
g5
F0.00039108330074305825
sS'.'
F0.99960891669925689
ssg2516
(dp3834
S'@thygesta'
p3835
F0.33333333333333331
sS'voc\xc3\xaa'
p3836
F0.33333333333333331
sg5
F0.33333333333333331
ssg431
(dp3837
g43
F0.5
sg5
F0.5
ssS'publicarei'
p3838
(dp3839
g5
F0.5
sS'no'
p3840
F0.5
ssg1418
(dp3841
g106
F0.5
sg5
F0.5
ssg2519
(dp3842
g5
F0.00049726504226752855
sS'.'
F0.99950273495773245
ssg2520
(dp3843
g5
F1
ssg2333
(dp3844
S'!'
F0.99964067553000358
sg5
F0.00035932446999640676
ssg976
(dp3845
S'e'
F0.5
sg5
F0.5
ssg2523
(dp3846
g5
F0.0004880429477794046
sS'.'
F0.99951195705222062
ssg1003
(dp3847
g5
F0.5
sS'.'
F0.5
ssS'a'
(dp3848
S'vc'
p3849
F4.3708204029896414e-05
sS'@simonetanaka'
p3850
F2.1854102014948207e-05
sS'melhor'
p3851
F2.1854102014948207e-05
sg871
F2.1854102014948207e-05
sS'bela'
p3852
F2.1854102014948207e-05
sg3652
F2.1854102014948207e-05
sg1184
F2.1854102014948207e-05
sS'Tabacaria'
p3853
F2.1854102014948207e-05
sS'nossa'
p3854
F4.3708204029896414e-05
sg2154
F2.1854102014948207e-05
sS'tag'
p3855
F0.030901700249136764
sg1295
F2.1854102014948207e-05
sg1433
F4.3708204029896414e-05
sS'combinar'
p3856
F0.068731150837012103
sS'1'
F2.1854102014948207e-05
sg879
F0.049433978757812844
sS'al\xc3\xa7a'
p3857
F2.1854102014948207e-05
sg3313
F2.1854102014948207e-05
sS'sua'
p3858
F8.7416408059792829e-05
sg3498
F2.1854102014948207e-05
sg1641
F2.1854102014948207e-05
sg375
F0.21513178023515014
sS'Elsa'
p3859
F2.1854102014948207e-05
sS'vez'
p3860
F2.1854102014948207e-05
sg680
F2.1854102014948207e-05
sS'.'
F0.24491892128152454
sg1881
F2.1854102014948207e-05
sg3040
F2.1854102014948207e-05
sg3196
F0.064862974780366275
sS'cobertura'
p3861
F2.1854102014948207e-05
sg1724
F2.1854102014948207e-05
sS'foto'
p3862
F0.073866864810524929
sS'de'
p3863
F2.1854102014948207e-05
sS'la'
p3864
F4.3708204029896414e-05
sg88
F2.1854102014948207e-05
sg3713
F2.1854102014948207e-05
sg2262
F2.1854102014948207e-05
sg1181
F2.1854102014948207e-05
sS'divers\xc3\xa3o'
p3865
F2.1854102014948207e-05
sS'chance'
p3866
F2.1854102014948207e-05
sg2964
F2.1854102014948207e-05
sS'esse'
p3867
F2.1854102014948207e-05
sg3211
F0.064862974780366275
sg232
F2.1854102014948207e-05
sS'preven\xc3\xa7\xc3\xa3o'
p3868
F2.1854102014948207e-05
sS'@fabbricadigelato'
p3869
F2.1854102014948207e-05
sS'uns'
p3870
F2.1854102014948207e-05
sS'autoria'
p3871
F0.064862974780366275
sg1022
F2.1854102014948207e-05
sS'festa'
p3872
F2.1854102014948207e-05
sS'mulher'
p3873
F2.1854102014948207e-05
sg2978
F2.1854102014948207e-05
sg3730
F2.1854102014948207e-05
sS'Make'
p3874
F2.1854102014948207e-05
sg3495
F0.064862974780366275
sg857
F2.1854102014948207e-05
sS'mais'
p3875
F2.1854102014948207e-05
sg2987
F2.1854102014948207e-05
sg3732
F2.1854102014948207e-05
sS'r'
F0.056186896280431838
sg1944
F2.1854102014948207e-05
sg2980
F2.1854102014948207e-05
sg1139
F2.1854102014948207e-05
sg324
F2.1854102014948207e-05
sg5
F2.1854102014948207e-05
sg3126
F2.1854102014948207e-05
sg2173
F2.1854102014948207e-05
ssg2524
(dp3876
g3487
F0.5
sg5
F0.5
ssg3872
(dp3877
S'aqui'
p3878
F0.5
sg5
F0.5
ssg2525
(dp3879
S'@hotmail'
p3880
F0.5
sg5
F0.5
ssS'@jujubacompositor'
p3881
(dp3882
g1634
F0.5
sg5
F0.5
ssg2567
(dp3883
g5
F1
ssg2527
(dp3884
S'!'
F0.99994372221284256
sg5
F5.6277787157408974e-05
ssg1522
(dp3885
g562
F0.33333333333333331
sS'e'
F0.33333333333333331
sg5
F0.33333333333333331
ssg2528
(dp3886
g5
F1
ssg384
(dp3887
S','
F0.5
sg5
F0.5
ssS'feed'
p3888
(dp3889
S'@Regrann'
p3890
F0.5
sg5
F0.5
ssg2531
(dp3891
g5
F1
ssg3156
(dp3892
g5
F1
ssg2013
(dp3893
g3738
F0.99970202622169246
sg5
F0.00029797377830750892
ssg2534
(dp3894
g5
F0.071428571428571425
sS'nosso'
p3895
F0.9285714285714286
ssg3025
(dp3896
g5
F0.5
sS'no'
p3897
F0.5
ssg2535
(dp3898
S'Cabral'
p3899
F0.5
sg5
F0.5
ssg2536
(dp3900
g5
F1
ssg2323
(dp3901
g5
F0.00059808612440191385
sS'.'
F0.99940191387559807
ssg2538
(dp3902
S'hahahaha'
p3903
F0.5
sg5
F0.5
ssg1921
(dp3904
S'/'
F0.66666666666666663
sg5
F0.33333333333333331
ssg3521
(dp3905
S'30'
p3906
F0.33333333333333331
sS'dias'
p3907
F0.33333333333333331
sg5
F0.33333333333333331
ssS'tinhamu'
p3908
(dp3909
g5
F1
ssg3523
(dp3910
S'00H'
p3911
F0.33333333333333331
sg5
F0.33333333333333331
sS'30'
p3912
F0.33333333333333331
ssg1090
(dp3913
S'08'
p3914
F0.5
sg5
F0.5
ssS'pronto'
p3915
(dp3916
S'pra'
p3917
F0.25
sS','
F0.5
sg5
F0.25
ssS'29'
p3918
(dp3919
S','
F0.5
sg5
F0.5
ssg460
(dp3920
S'23h00'
p3921
F0.5
sg5
F0.5
ssg116
(dp3922
g5
F1
ssg396
(dp3923
S'que'
p3924
F0.5
sg5
F0.5
ssg863
(dp3925
S'passeios'
p3926
F0.5
sg5
F0.5
ssS'imagens'
p3927
(dp3928
S'sem'
p3929
F0.99933730947647448
sg5
F0.00066269052352551359
ssg3139
(dp3930
g5
F0.5
sS'.'
F0.5
ssg2904
(dp3931
g5
F0.5
sg2114
F0.5
ssS'Bar'
p3932
(dp3933
g5
F0.33333333333333331
sS','
F0.33333333333333331
sS'.'
F0.33333333333333331
ssg2913
(dp3934
S'com'
p3935
F0.33333333333333331
sS','
F0.33333333333333331
sg5
F0.33333333333333331
ssS'L'
(dp3936
g5
F5.3940341981768162e-05
sS'O'
F0.54673930632720213
sS'.'
F0.45320675333081611
ssg3482
(dp3937
g3682
F0.33333333333333331
sS'mais'
p3938
F0.33333333333333331
sg5
F0.33333333333333331
ssg1749
(dp3939
S'a'
F0.5
sg5
F0.5
ssS'acordando'
p3940
(dp3941
g2036
F0.5
sg5
F0.5
ssg2550
(dp3942
g5
F0.00030093289196509181
sS'.'
F0.99969906710803491
ssg407
(dp3943
S'e'
F0.5
sg5
F0.5
ssg413
(dp3944
S','
F0.99933199732798927
sg5
F0.0006680026720106881
ssg3528
(dp3945
g1279
F0.5
sg5
F0.5
ssS'zamores'
p3946
(dp3947
S'!'
F0.5
sg5
F0.5
ssg3799
(dp3948
g266
F0.5
sg5
F0.5
ssS'agri\xc3\xa3o'
p3949
(dp3950
S'by'
p3951
F0.5
sg5
F0.5
ssS'nossa'
p3952
(dp3953
S'!'
F0.00070372976776917663
sS'loja'
p3954
F0.00070372976776917663
sg2192
F0.00070372976776917663
sg3048
F0.99507389162561577
sS'marca'
p3955
F0.00070372976776917663
sg1644
F0.00070372976776917663
sS'amiga'
p3956
F0.00070372976776917663
sg5
F0.00070372976776917663
ssS'toda'
p3957
(dp3958
S'a'
F0.25
sS'mulher'
p3959
F0.25
sg3092
F0.25
sg5
F0.25
ssg2827
(dp3960
S'eu'
p3961
F0.5
sg5
F0.5
ssg2556
(dp3962
g5
F1
ssS'todo'
p3963
(dp3964
g5
F0.0002576655501159495
sS'o'
F0.99948466889976806
sS'li'
p3965
F0.0002576655501159495
ssg1402
(dp3966
g3888
F0.00040666937779585197
sS'estoque'
p3967
F0.00040666937779585197
sS'projeto'
p3968
F0.0052867019113460754
sS'site'
p3969
F0.99267995119967467
sS'@claudinhoferraz'
p3970
F0.00040666937779585197
sg5
F0.00040666937779585197
sg3259
F0.00040666937779585197
ssS'somente'
p3971
(dp3972
S'uma'
p3973
F0.66666666666666663
sg5
F0.33333333333333331
ssg1035
(dp3974
g95
F0.5
sg5
F0.5
ssg2557
(dp3975
g5
F1
ssS'Maring\xc3\xa1'
p3976
(dp3977
g5
F0.5
sS'.'
F0.5
ssg3612
(dp3978
S'de'
p3979
F0.5
sg5
F0.5
ssg2558
(dp3980
S'uma'
p3981
F0.99954730647351742
sg5
F0.0004526935264825713
ssS'7'
(dp3982
g3471
F0.00011931750387781887
sg5
F0.00011931750387781887
sS'.'
F0.99976136499224433
ssg3113
(dp3983
g5
F0.5
sS'Lindo'
p3984
F0.5
ssg1946
(dp3985
S'de'
p3986
F0.5
sg5
F0.5
ssg2560
(dp3987
g147
F0.99971346704871056
sg5
F0.00028653295128939826
ssg33
(dp3988
g3587
F0.00039984006397441024
sS'CONTATO'
p3989
F0.99920031987205116
sg5
F0.00039984006397441024
ssg2563
(dp3990
g1707
F0.25
sg3828
F0.25
sg5
F0.25
sg1416
F0.25
ssg432
(dp3991
S','
F0.99933199732798927
sg5
F0.0006680026720106881
ssS'imagina'
p3992
(dp3993
S'que'
p3994
F0.5
sg5
F0.5
ssg439
(dp3995
g5
F1
ssS'imagino'
p3996
(dp3997
g1596
F0.5
sg5
F0.5
ssg959
(dp3998
S'de'
p3999
F0.99940191387559807
sg5
F0.00059808612440191385
ssS'Em'
p4000
(dp4001
g2992
F0.99867549668874167
sg2884
F0.00044150110375275938
sg5
F0.00044150110375275938
sg2014
F0.00044150110375275938
ssg3968
(dp4002
S'e'
F0.9285714285714286
sg5
F0.071428571428571425
ssS'gaivotas'
p4003
(dp4004
S'em'
p4005
F0.5
sg5
F0.5
ssg525
(dp4006
g3807
F0.99968857053877291
sg5
F0.0003114294612270321
ssg450
(dp4007
S'e'
F0.5
sg5
F0.5
ssg2566
(dp4008
S'!'
F0.14704820364686766
sg1906
F4.5134500812421012e-05
sS'n\xc3\xa3o'
p4009
F4.5134500812421012e-05
sS'e'
F4.5134500812421012e-05
sS't\xc3\xb4'
p4010
F4.5134500812421012e-05
sS'quero'
p4011
F0.85272612384907021
sg5
F4.5134500812421012e-05
ssg2568
(dp4012
S'/'
F0.99966521593572144
sg5
F0.00033478406427854036
ssg2576
(dp4013
g1561
F0.5
sg5
F0.5
ssg2570
(dp4014
S'vou'
p4015
F0.5
sg5
F0.5
ssS'cada'
p4016
(dp4017
S'dia'
p4018
F0.5
sg5
F0.5
ssg911
(dp4019
S'entre'
p4020
F0.5
sg5
F0.5
ssg2561
(dp4021
g5
F0.5
sS'da'
p4022
F0.5
ssg913
(dp4023
g5
F0.5
sS'.'
F0.5
ssg366
(dp4024
g2943
F0.5
sg5
F0.5
ssS'gourmet'
p4025
(dp4026
S'!'
F0.5
sg5
F0.5
ssg2357
(dp4027
S'a'
F0.5
sg5
F0.5
ssg2578
(dp4028
S'!'
F0.99974574116450543
sg5
F0.00025425883549453341
ssS'contra'
p4029
(dp4030
g2071
F0.5
sg5
F0.5
ssg3187
(dp4031
S'Faz'
p4032
F0.5
sg5
F0.5
ssg2580
(dp4033
S'te'
p4034
F0.5
sg5
F0.5
ssg271
(dp4035
S'com'
p4036
F0.5
sg5
F0.5
ssg3520
(dp4037
S'gelato'
p4038
F0.33333333333333331
sS'Fridas'
p4039
F0.33333333333333331
sg5
F0.33333333333333331
ssg471
(dp4040
S','
F0.5
sg5
F0.5
ssg2583
(dp4041
S'?'
F0.99978489997848996
sg5
F0.00021510002151000216
ssg1158
(dp4042
S'voc\xc3\xaa'
p4043
F0.00025186802115691377
sg1696
F0.41868860716984302
sg4016
F8.3956007052304589e-05
sg3518
F8.3956007052304589e-05
sS'eu'
p4044
F8.3956007052304589e-05
sS'todo'
p4045
F8.3956007052304589e-05
sS'vhmodaonline'
p4046
F8.3956007052304589e-05
sS'ser'
p4047
F8.3956007052304589e-05
sg1856
F0.15607421711023423
sS'sua'
p4048
F8.3956007052304589e-05
sg2254
F8.3956007052304589e-05
sg1394
F8.3956007052304589e-05
sS'fazer'
p4049
F8.3956007052304589e-05
sg5
F8.3956007052304589e-05
sS'S\xc3\xa3o'
p4050
F8.3956007052304589e-05
sg2384
F8.3956007052304589e-05
sg1338
F8.3956007052304589e-05
sS'pouco'
p4051
F8.3956007052304589e-05
sS'a'
F0.00016791201410460918
sS'o'
F8.3956007052304589e-05
sg1039
F0.17429267064058435
sg576
F0.24918142893124004
ssS'representou'
p4052
(dp4053
S'MT'
p4054
F0.5
sg5
F0.5
ssg2020
(dp4055
S'que'
p4056
F0.5
sg5
F0.5
ssg474
(dp4057
g5
F0.5
sg537
F0.5
ssg2586
(dp4058
g5
F1
ssg1006
(dp4059
S'tbm'
p4060
F0.5
sg5
F0.5
ssg2623
(dp4061
g5
F1
ssS'sigo'
p4062
(dp4063
S'faz'
p4064
F0.5
sg5
F0.5
ssg1773
(dp4065
g5
F0.5
sg930
F0.5
ssg2590
(dp4066
S'a'
F0.5
sg5
F0.5
ssg3269
(dp4067
g5
F0.5
sg2865
F0.5
ssg2591
(dp4068
g5
F0.5
sS'Kd'
p4069
F0.5
ssS'poderia'
p4070
(dp4071
g3103
F0.5
sg5
F0.5
ssS'b'
(dp4072
S'a'
F0.5
sg5
F0.5
ssg2201
(dp4073
g1702
F0.5
sg5
F0.5
ssS'min'
p4074
(dp4075
S'de'
p4076
F0.5
sg5
F0.5
ssg1767
(dp4077
S'do'
p4078
F0.5
sg5
F0.5
ssg2177
(dp4079
S'grande'
p4080
F0.5
sg5
F0.5
ssg1284
(dp4081
g5
F1
ssg2600
(dp4082
S'que'
p4083
F0.5
sg5
F0.5
ssg2695
(dp4084
S'do'
p4085
F0.5
sg5
F0.5
ssS'@vagnebittencourt'
p4086
(dp4087
g5
F0.5
sS'.'
F0.5
ssg2604
(dp4088
g5
F0.5
sg3129
F0.5
ssg2605
(dp4089
g5
F1
ssg3039
(dp4090
g5
F1
ssS'B'
(dp4091
g145
F0.00036429872495446266
sg5
F0.00036429872495446266
sS'.'
F0.99927140255009106
ssg2952
(dp4092
S'cervejas'
p4093
F0.5
sg5
F0.5
ssg2607
(dp4094
g5
F0.5
sS'.'
F0.5
ssS's\xc3\xa9rio'
p4095
(dp4096
S'!'
F0.5
sg5
F0.5
ssg3372
(dp4097
S'quando'
p4098
F0.5
sg5
F0.5
ssS'adesso'
p4099
(dp4100
S'chi'
p4101
F0.5
sg5
F0.5
ssg2610
(dp4102
g5
F0.5
sS'.'
F0.5
ssg3154
(dp4103
g5
F0.5
sS'no'
p4104
F0.5
ssg3008
(dp4105
g5
F0.5
sS'.'
F0.5
ssg3967
(dp4106
S','
F0.5
sg5
F0.5
ssg3606
(dp4107
g2368
F0.5
sg5
F0.5
ssS'M'
(dp4108
S'A'
F0.00048816206980717598
sg5
F0.00024408103490358799
sS'.'
F0.99926775689528924
ssS'@augustomaozinha'
p4109
(dp4110
g5
F1
ssS'essa'
p4111
(dp4112
g5
F0.20000000000000001
sS'\xc3\xa9'
p4113
F0.20000000000000001
sS'top'
p4114
F0.20000000000000001
sg2346
F0.20000000000000001
sg1930
F0.20000000000000001
ssS'@mysafesport'
p4115
(dp4116
g5
F1
ssg1171
(dp4117
g5
F0.5
sS'nos'
p4118
F0.5
ssg713
(dp4119
S'lugar'
p4120
F0.125
sS'aqui'
p4121
F0.125
sg1326
F0.125
sS'insta'
p4122
F0.125
sS'lindo'
p4123
F0.125
sS'para\xc3\xadso'
p4124
F0.125
sS'8'
F0.125
sg5
F0.125
ssS'v\xc3\xa1rias'
p4125
(dp4126
S'cores'
p4127
F0.5
sg5
F0.5
ssg505
(dp4128
g5
F0.0006680026720106881
sS'peruana'
p4129
F0.99933199732798927
ssg1198
(dp4130
g3360
F0.5
sg5
F0.5
ssg2620
(dp4131
g3881
F0.5
sg5
F0.5
ssg2621
(dp4132
g5
F0.5
sS'.'
F0.5
ssg2622
(dp4133
g3226
F0.5
sg5
F0.5
ssg2588
(dp4134
g2361
F0.99981367616918204
sg5
F0.00018632383081796161
ssg847
(dp4135
S'lugar'
p4136
F0.25
sg1782
F0.25
sg3204
F0.25
sg5
F0.25
ssg2625
(dp4137
g5
F1
ssg2627
(dp4138
g5
F1
ssg2631
(dp4139
S'lugar'
p4140
F0.5
sg5
F0.5
ssg2240
(dp4141
g3396
F0.5
sg5
F0.5
ssg2121
(dp4142
g5
F1
ssg2633
(dp4143
g5
F0.0004526935264825713
sS'.'
F0.99954730647351742
ssg2267
(dp4144
S'@larmrc'
p4145
F0.5
sg5
F0.5
ssg2634
(dp4146
g5
F0.5
sg2009
F0.5
ssg2635
(dp4147
S'@julianacarmelia'
p4148
F0.5
sg5
F0.5
ssg2129
(dp4149
S'!'
F0.5
sg5
F0.5
ssg1121
(dp4150
S'!'
F0.99955810870525852
sg5
F0.00044189129474149361
ssS'tinha'
p4151
(dp4152
g317
F0.5
sg5
F0.5
ssg3326
(dp4153
S'e'
F0.5
sg5
F0.5
ssg2640
(dp4154
S','
F0.5
sg5
F0.5
ssg3003
(dp4155
g3663
F0.5
sg5
F0.5
ssg2642
(dp4156
g5
F0.00042069835927639884
sS'.'
F0.99957930164072362
ssg2643
(dp4157
S'!'
F0.99982477659015245
sg5
F0.00017522340984755565
ssS'8'
(dp4158
g5
F0.00034879665155214509
sS'de'
p4159
F0.00034879665155214509
sS'anos'
p4160
F0.00034879665155214509
sS','
F0.00034879665155214509
sS'.'
F0.99860481339379137
ssg1469
(dp4161
g5
F1
ssg2501
(dp4162
S'Essa'
p4163
F0.5
sg5
F0.5
ssS'atende'
p4164
(dp4165
g5
F0.5
sS'at\xc3\xa9'
p4166
F0.5
ssS'pois'
p4167
(dp4168
S'\xc3\xa9'
p4169
F0.5
sg5
F0.5
ssg404
(dp4170
g5
F0.0006680026720106881
sS'da'
p4171
F0.99933199732798927
ssg2650
(dp4172
g5
F0.00039936102236421724
sS'.'
F0.99960063897763574
ssg2651
(dp4173
g5
F1
ssg1800
(dp4174
S'tem'
p4175
F0.33333333333333331
sg3199
F0.33333333333333331
sg5
F0.33333333333333331
ssg2655
(dp4176
g5
F1
ssg3278
(dp4177
S','
F0.5
sg5
F0.5
ssg2656
(dp4178
g5
F1
ssg3634
(dp4179
S'\xc3\xa9'
p4180
F0.5
sg5
F0.5
ssg2657
(dp4181
g1360
F0.5
sg5
F0.5
ssS'@bahbritomakeup'
p4182
(dp4183
S','
F0.5
sg5
F0.5
ssS'x'
(dp4184
S'Argentina'
p4185
F0.5
sg5
F0.5
ssg3818
(dp4186
S'!'
F0.5
sg5
F0.5
ssg2790
(dp4187
S'segue'
p4188
F0.99953746530989829
sg5
F0.00046253469010175765
ssg1568
(dp4189
S'!'
F0.00039765384233025154
sS'Brasil'
p4190
F0.29396560294263846
sS'na'
p4191
F9.9413460582562885e-05
sS'mundo'
p4192
F9.9413460582562885e-05
sg3704
F9.9413460582562885e-05
sg153
F9.9413460582562885e-05
sg2406
F9.9413460582562885e-05
sS'flagra'
p4193
F0.20399642111541902
sg1300
F0.5010438413361169
sg5
F9.9413460582562885e-05
ssg2572
(dp4194
g5
F0.00042140750105351877
sS'.'
F0.99957859249894643
ssS'ser'
p4195
(dp4196
g3654
F0.16666666666666666
sS'uma'
p4197
F0.5
sS'?'
F0.16666666666666666
sg5
F0.16666666666666666
ssg2661
(dp4198
g5
F0.5
sS'da'
p4199
F0.5
ssg419
(dp4200
S'Uhuhu'
p4201
F0.5
sg5
F0.5
ssg2743
(dp4202
S'do'
p4203
F0.33333333333333331
sS'foto'
p4204
F0.33333333333333331
sg5
F0.33333333333333331
ssg1482
(dp4205
g5
F0.20000000000000001
sS'connected'
p4206
F0.20000000000000001
sS'or'
p4207
F0.20000000000000001
sg304
F0.20000000000000001
sS'no'
p4208
F0.20000000000000001
ssS'floripaoncars'
p4209
(dp4210
g5
F0.00037243947858472997
sS'.'
F0.99962756052141521
ssg635
(dp4211
g1835
F0.24224899598393573
sS'juros'
p4212
F0.21477911646586345
sS'dar'
p4213
F0.54281124497991973
sg5
F0.0001606425702811245
ssg2667
(dp4214
g5
F0.00050505050505050505
sS'.'
F0.99949494949494955
ssg3632
(dp4215
S'td'
p4216
F0.5
sg5
F0.5
ssg2670
(dp4217
g3123
F9.776126698602014e-05
sS'assessoria'
p4218
F0.78404536122788149
sg3963
F0.21575911623814645
sg5
F9.776126698602014e-05
ssg2629
(dp4219
g61
F0.5
sg5
F0.5
ssg1872
(dp4220
S','
F0.5
sg5
F0.5
ssg2673
(dp4221
g5
F1
ssS'Estrias'
p4222
(dp4223
g5
F0.5
sS'.'
F0.5
ssg2122
(dp4224
g5
F1
ssS'@mamaeamiga'
p4225
(dp4226
S'@ohmycake'
p4227
F0.66666666666666663
sg5
F0.33333333333333331
ssg2676
(dp4228
g5
F1
ssg2678
(dp4229
S'!'
F0.99976110845676058
sg5
F0.00023889154323936931
ssS'ligth'
p4230
(dp4231
S'uma'
p4232
F0.5
sg5
F0.5
ssg2332
(dp4233
g5
F0.5
sg199
F0.5
ssg2682
(dp4234
g4000
F0.40364025695931477
sg5
F0.00017844396859386153
sS'.'
F0.59618129907209139
ssg1009
(dp4235
S'\xc3\xa9'
p4236
F0.5
sg5
F0.5
ssS'c'
(dp4237
S'a'
F0.45625554569653948
sS'i'
F0.00017746228926353151
sS'b'
F0.00017746228926353151
sg5
F0.00017746228926353151
sS'.'
F0.54321206743566997
ssg1219
(dp4238
S'pra'
p4239
F0.5
sg5
F0.5
ssS'@dieg0ferreiraa'
p4240
(dp4241
S'@bialopesthai'
p4242
F0.5
sg5
F0.5
ssg1152
(dp4243
S'multiplas'
p4244
F0.5
sg5
F0.5
ssg2860
(dp4245
g5
F0.0004526935264825713
sS'que'
p4246
F0.0004526935264825713
sS'.'
F0.99909461294703483
ssg2724
(dp4247
g5
F0.5
sS'suja'
p4248
F0.5
ssS'lindinha'
p4249
(dp4250
g5
F0.5
sS'&'
F0.5
ssg2686
(dp4251
g4111
F0.33333333333333331
sg2999
F0.33333333333333331
sg5
F0.33333333333333331
ssg449
(dp4252
S','
F0.99933199732798927
sg5
F0.0006680026720106881
ssS'Chic'
p4253
(dp4254
g5
F0.5
sg624
F0.5
ssg2687
(dp4255
S'!'
F0.99952941176470589
sg5
F0.00047058823529411766
ssg512
(dp4256
S'!'
F0.5
sg5
F0.5
ssg1001
(dp4257
S'!'
F0.25
sg5
F0.25
sS'@liciasemijoais'
p4258
F0.25
sg3073
F0.25
ssg1900
(dp4259
g3757
F0.5
sg5
F0.5
ssg263
(dp4260
S'por'
p4261
F0.5
sg5
F0.5
ssg943
(dp4262
g5
F0.5
sS'.'
F0.5
ssg3116
(dp4263
g5
F1
ssg3062
(dp4264
g5
F1
ssg3852
(dp4265
g762
F0.5
sg5
F0.5
ssg463
(dp4266
S'!'
F0.5
sg5
F0.5
ssS'likes'
p4267
(dp4268
S'de'
p4269
F0.99949545913218973
sg5
F0.00050454086781029264
ssg3455
(dp4270
g5
F0.25
sS'J\xc3\xa1'
p4271
F0.25
sg754
F0.25
sS'@isacar123'
p4272
F0.25
ssg2699
(dp4273
S'to'
p4274
F0.5
sg5
F0.5
ssg2700
(dp4275
g5
F1
ssg2799
(dp4276
g5
F1
ssg2916
(dp4277
g3776
F0.5
sg5
F0.5
ssg2703
(dp4278
S'a'
F0.99968213604577238
sg5
F0.0003178639542275906
ssg2328
(dp4279
g2039
F0.5
sg5
F0.5
ssg523
(dp4280
S'plaquinha'
p4281
F0.99977288212582327
sg5
F0.00022711787417669771
ssg3286
(dp4282
g5
F0.5
sS'.'
F0.5
ssg2485
(dp4283
g5
F0.00017670966601873123
sS'.'
F0.99982329033398132
ssS'N'
(dp4284
g5
F0.00050226017076845811
sS'.'
F0.99949773982923151
ssg2708
(dp4285
S's\xc3\xb3'
p4286
F0.5
sg5
F0.5
ssg2709
(dp4287
S'se'
p4288
F0.5
sg5
F0.5
ssg2711
(dp4289
S'@lojaledu'
p4290
F0.5
sg5
F0.5
ssg2712
(dp4291
g5
F0.0001266784899923993
sS'.'
F0.99987332151000763
ssS'look'
p4292
(dp4293
S'do'
p4294
F0.20000000000000001
sg3608
F0.20000000000000001
sg5
F0.20000000000000001
sS'?'
F0.20000000000000001
sg3613
F0.20000000000000001
ssg2713
(dp4295
g1176
F0.5
sg5
F0.5
ssg313
(dp4296
g3915
F0.40000000000000002
sS'\xc3\xa9'
p4297
F0.20000000000000001
sS'sim'
p4298
F0.20000000000000001
sg5
F0.20000000000000001
ssg2917
(dp4299
g3665
F0.5
sg5
F0.5
ssS'perdido'
p4300
(dp4301
g5
F1
ssg258
(dp4302
g5
F0.5
sg1445
F0.5
ssg2490
(dp4303
S'@rafaelaclark'
p4304
F0.5
sg5
F0.5
ssg1468
(dp4305
g2202
F0.5
sg5
F0.5
ssg2719
(dp4306
g5
F0.00047505938242280285
sS'.'
F0.99952494061757724
ssg1082
(dp4307
S'3'
F0.5
sg5
F0.5
ssS'E-mail'
p4308
(dp4309
g5
F0.00048709206039941551
sg1638
F0.99951290793960057
ssg1378
(dp4310
S','
F0.5
sg5
F0.5
ssS'estampas'
p4311
(dp4312
S'para'
p4313
F0.5
sg5
F0.5
ssg3110
(dp4314
S'bombaa'
p4315
F0.5
sg5
F0.5
ssg2721
(dp4316
g3688
F0.5
sg5
F0.5
ssS'voy'
p4317
(dp4318
S'por'
p4319
F0.5
sg5
F0.5
ssg1154
(dp4320
S'cal\xc3\xb3rica'
p4321
F0.5
sg5
F0.5
ssS'Stock'
p4322
(dp4323
S'Car'
p4324
F0.5
sg5
F0.5
ssg2723
(dp4325
g5
F0.00030911901081916539
sS'.'
F0.9996908809891808
ssg3366
(dp4326
g3782
F0.99962990377498151
sg5
F0.00037009622501850479
ssg3387
(dp4327
g3421
F0.5
sg5
F0.5
ssg3911
(dp4328
g5
F0.5
sS'.'
F0.5
ssg3633
(dp4329
S'gente'
p4330
F0.5
sg5
F0.5
ssS'kimono'
p4331
(dp4332
S'@lojajohaina'
p4333
F0.5
sg5
F0.5
ssS'9'
(dp4334
g5
F0.00024032684450853159
sS'.'
F0.99975967315549141
ssg3450
(dp4335
g4300
F0.5
sg5
F0.5
ssS'bom'
p4336
(dp4337
S'em'
p4338
F0.14285714285714285
sS'!'
F0.14285714285714285
sS'que'
p4339
F0.14285714285714285
sS'dia'
p4340
F0.42857142857142855
sg5
F0.14285714285714285
ssg2261
(dp4341
S'para'
p4342
F0.5
sg5
F0.5
ssg2728
(dp4343
S'q'
F0.5
sg5
F0.5
ssS'chegou'
p4344
(dp4345
S'fenugreek'
p4346
F0.99866488651535379
sS'e'
F0.00066755674232309744
sg5
F0.00066755674232309744
ssg501
(dp4347
S'de'
p4348
F0.33333333333333331
sS'e'
F0.33333333333333331
sg5
F0.33333333333333331
ssS'estimo'
p4349
(dp4350
g228
F0.5
sg5
F0.5
ssS'a\xc3\xad'
p4351
(dp4352
g5
F0.0003243593902043464
sS','
F0.00064871878040869281
sg3583
F0.0003243593902043464
sg1730
F0.99870256243918265
ssg2887
(dp4353
S'Vamos-'
p4354
F0.5
sg5
F0.5
ssg2732
(dp4355
g1969
F0.00017102787754403969
sg5
F0.00017102787754403969
sS','
F0.62972464511715409
sS'.'
F0.3699332991277578
ssg506
(dp4356
S'azul'
p4357
F0.5
sg5
F0.5
ssg2733
(dp4358
S'a'
F0.33333333333333331
sg3957
F0.33333333333333331
sg5
F0.33333333333333331
ssg2734
(dp4359
S'naso'
p4360
F0.5
sg5
F0.5
ssg2736
(dp4361
g5
F0.00013906271728549575
sg4351
F0.42817410652204146
sS'no'
p4362
F0.57168683076067306
ssg2737
(dp4363
S'em'
p4364
F0.49414634146341463
sS'@americamineiro'
p4365
F0.00024390243902439024
sg5
F0.00024390243902439024
sS'no'
p4366
F0.50536585365853659
ssg1589
(dp4367
S'\xc3\xa9'
p4368
F0.5
sg5
F0.5
ssg3529
(dp4369
S'de'
p4370
F0.33333333333333331
sS'beachwear'
p4371
F0.33333333333333331
sg5
F0.33333333333333331
ssS'fa\xc3\xa7o'
p4372
(dp4373
S'pra'
p4374
F0.00048123195380173246
sS'para'
p4375
F0.99903753609239654
sg5
F0.00048123195380173246
ssS'eles'
p4376
(dp4377
g1405
F0.5
sg5
F0.5
ssS'y'
(dp4378
S'sabrosura'
p4379
F0.33333333333333331
sg5
F0.33333333333333331
sS'Volar'
p4380
F0.33333333333333331
ssg2741
(dp4381
g4167
F0.5
sg5
F0.5
ssg2742
(dp4382
S','
F0.5
sg5
F0.5
ssg2745
(dp4383
S'!'
F0.5
sg5
F0.5
ssS'-'
(dp4384
S'Confira'
p4385
F0.35131009921139661
sg5
F0.00025438819638768761
sS'.'
F0.64843551259221577
ssg1867
(dp4386
S'que'
p4387
F0.99933199732798927
sg5
F0.0006680026720106881
ssg1439
(dp4388
g5
F0.5
sS'.'
F0.5
ssg3914
(dp4389
g5
F1
ssg1359
(dp4390
g5
F0.5
sS'no'
p4391
F0.5
ssg3856
(dp4392
g876
F0.99968213604577238
sg5
F0.0003178639542275906
ssg2581
(dp4393
g579
F0.33333333333333331
sg2078
F0.33333333333333331
sg5
F0.33333333333333331
ssS'Snake'
p4394
(dp4395
g4164
F0.5
sg5
F0.5
ssg2752
(dp4396
g2045
F0.5
sg5
F0.5
ssg2753
(dp4397
S'pelo'
p4398
F0.5
sg5
F0.5
ssg1936
(dp4399
g3324
F0.5
sg5
F0.5
ssS'havia'
p4400
(dp4401
g2251
F0.5
sg5
F0.5
ssg969
(dp4402
g3628
F0.5
sg5
F0.5
ssg1759
(dp4403
S'!'
F0.42594675665541809
sS'do'
p4404
F0.00018747656542932134
sg5
F0.00018747656542932134
sS'.'
F0.5736782902137233
ssg3536
(dp4405
g1223
F0.5
sg5
F0.5
ssg2755
(dp4406
S'!'
F0.45561749571183535
sg5
F0.0002144082332761578
sS'.'
F0.54416809605488847
ssg2756
(dp4407
g3661
F0.33333333333333331
sS'@gustavotorreao'
p4408
F0.33333333333333331
sg5
F0.33333333333333331
ssg2757
(dp4409
S'!'
F0.99924012158054709
sg283
F0.00037993920972644377
sg5
F0.00037993920972644377
ssg3955
(dp4410
S'!'
F0.5
sg5
F0.5
ssg771
(dp4411
g5
F0.5
sg17
F0.5
ssg1582
(dp4412
g5
F0.5
sg3801
F0.5
ssg2688
(dp4413
S'pelo'
p4414
F0.5
sg5
F0.5
ssg2760
(dp4415
g3418
F0.5
sg5
F0.5
ssg2761
(dp4416
S'!'
F0.99955337204108974
sg5
F0.00044662795891022776
ssS'd'
(dp4417
g5
F0.00012515644555694618
sg1428
F0.00012515644555694618
sS'vcs'
p4418
F0.00012515644555694618
sS'o'
F0.67309136420525661
sS'.'
F0.32653316645807257
ssS'MAIS'
p4419
(dp4420
g828
F0.5
sg5
F0.5
ssg2763
(dp4421
S'e'
F0.5
sg5
F0.5
ssg741
(dp4422
S'o'
F0.5
sg5
F0.5
ssg1993
(dp4423
S'vestir'
p4424
F0.5
sg5
F0.5
ssg3794
(dp4425
S'maravilhoso'
p4426
F0.33333333333333331
sS','
F0.33333333333333331
sg5
F0.33333333333333331
ssg3784
(dp4427
g1652
F0.99962990377498151
sg5
F0.00037009622501850479
ssg2806
(dp4428
S'final'
p4429
F0.5
sg5
F0.5
ssg2766
(dp4430
g5
F1
ssg2768
(dp4431
g5
F0.5
sg53
F0.5
ssg2769
(dp4432
S'j\xc3\xa1'
p4433
F0.9992764109985528
sg5
F0.00072358900144717795
ssg422
(dp4434
g3508
F0.5
sg5
F0.5
ssg2772
(dp4435
g5
F0.00044228217602830609
sS'.'
F0.99955771782397174
ssg2773
(dp4436
S'me'
p4437
F0.00072621641249092229
sg3405
F0.99854756717501814
sg5
F0.00072621641249092229
ssg1479
(dp4438
S','
F0.66666666666666663
sg5
F0.33333333333333331
ssg956
(dp4439
S'de'
p4440
F0.5
sg5
F0.5
ssg1576
(dp4441
S'e'
F0.5
sg5
F0.5
ssg2270
(dp4442
S'!'
F0.5
sg5
F0.5
ssg2782
(dp4443
g3440
F0.66666666666666663
sg5
F0.33333333333333331
ssg2783
(dp4444
g5
F1
ssS'@institutoamorim'
p4445
(dp4446
S'sempre'
p4447
F0.5
sg5
F0.5
ssg2168
(dp4448
S','
F0.5
sg5
F0.5
ssg1629
(dp4449
S'moral'
p4450
F0.25
sS'make'
p4451
F0.25
sS'Serra'
p4452
F0.25
sg5
F0.25
ssg2785
(dp4453
S'assim'
p4454
F0.5
sg5
F0.5
ssg3267
(dp4455
S'!'
F0.5
sg5
F0.5
ssg2373
(dp4456
S'n\xc3\xa3o'
p4457
F0.5
sg5
F0.5
ssg3605
(dp4458
g1826
F0.5
sg5
F0.5
ssg3581
(dp4459
g3142
F0.33333333333333331
sg3819
F0.33333333333333331
sg5
F0.33333333333333331
ssg2788
(dp4460
S'muito'
p4461
F0.33333333333333331
sS'e'
F0.33333333333333331
sg5
F0.33333333333333331
ssg972
(dp4462
S'em'
p4463
F0.99940191387559807
sg5
F0.00059808612440191385
ssS'O'
(dp4464
g4292
F2.0304980811793132e-05
sS'o'
F0.065097768482608787
sS'.'
F0.49379682836199718
sg2018
F0.051655871185201728
sS'link'
p4465
F0.053036609880403665
sS'O'
F0.13047980669658268
sS'V'
F0.20581128550833519
sg4445
F2.0304980811793132e-05
sg592
F2.0304980811793132e-05
sg5
F2.0304980811793132e-05
sg3492
F2.0304980811793132e-05
sS'bom'
p4466
F2.0304980811793132e-05
ssg3172
(dp4467
S','
F0.5
sg5
F0.5
ssg2793
(dp4468
g5
F0.16666666666666666
sg1918
F0.66666666666666663
sS'fim'
p4469
F0.16666666666666666
ssg2794
(dp4470
S'!'
F0.084073711386094541
sS'www'
p4471
F0.14697765512329744
sS'e'
F0.029751624677290128
sS'para'
p4472
F0.033098905012018162
sS','
F1.7804682631532092e-05
sS'.'
F0.63868957535831927
sg3723
F0.036535208759903855
sS'facebook'
p4473
F0.030837710317813585
sg5
F1.7804682631532092e-05
ssg2248
(dp4474
S'e'
F0.5
sg5
F0.5
ssg2796
(dp4475
g1721
F0.40000000000000002
sg748
F0.20000000000000001
sg1470
F0.20000000000000001
sg5
F0.20000000000000001
ssg2692
(dp4476
g4419
F0.5
sg5
F0.5
ssg534
(dp4477
S'saudades'
p4478
F0.33333333333333331
sS'hortas'
p4479
F0.33333333333333331
sg5
F0.33333333333333331
ssg3951
(dp4480
g5
F0.5
sg2213
F0.5
ssS'curtidas'
p4481
(dp4482
S'!'
F0.49983372131692716
sg939
F0.5
sg5
F0.00016627868307283005
ssS'@goganda'
p4483
(dp4484
g5
F1
ssg1763
(dp4485
g5
F1
ssg2399
(dp4486
g5
F0.00024443901246638962
sS'.'
F0.9997555609875336
ssg2798
(dp4487
S'!'
F0.99960254372019075
sg5
F0.00039745627980922101
ssg2549
(dp4488
S'do'
p4489
F0.5
sg5
F0.5
ssS'/Dia'
p4490
(dp4491
S'e'
F0.5
sg5
F0.5
ssg2801
(dp4492
S'para'
p4493
F0.5
sg5
F0.5
ssg1167
(dp4494
S','
F0.5
sg5
F0.5
ssg4101
(dp4495
S'va'
p4496
F0.5
sg5
F0.5
ssg2340
(dp4497
S'Feminina'
p4498
F0.5
sg5
F0.5
ssS'hahahah'
p4499
(dp4500
g1942
F0.5
sg5
F0.5
ssg4321
(dp4501
g5
F0.5
sS'.'
F0.5
ssg2805
(dp4502
g5
F1
ssg2807
(dp4503
S'n\xc3\xa3o'
p4504
F0.5
sg5
F0.5
ssg2809
(dp4505
g5
F0.00044682752457551384
sS'.'
F0.99955317247542452
ssg3184
(dp4506
S','
F0.5
sg5
F0.5
ssg1574
(dp4507
S'encerra'
p4508
F0.66666666666666663
sg5
F0.33333333333333331
ssg2812
(dp4509
g5
F1
ssg110
(dp4510
S'do'
p4511
F0.33333333333333331
sS'www'
p4512
F0.33333333333333331
sg5
F0.33333333333333331
ssS'podem'
p4513
(dp4514
S'ser'
p4515
F0.5
sg5
F0.5
ssg3249
(dp4516
g5
F0.5
sg3358
F0.5
ssS'@diegoredd'
p4517
(dp4518
S'@pedrohf14'
p4519
F0.5
sg5
F0.5
ssg2102
(dp4520
g1647
F0.00029550827423167848
sg2246
F0.00029550827423167848
sg3347
F0.00029550827423167848
sS'autor'
p4521
F0.99852245862884159
sg1357
F0.00029550827423167848
sg5
F0.00029550827423167848
ssg4010
(dp4522
g1544
F0.5
sg5
F0.5
ssg2569
(dp4523
S'naturall'
p4524
F0.5
sg5
F0.5
ssg3547
(dp4525
S';'
F0.5
sg5
F0.5
ssg218
(dp4526
S'essas'
p4527
F0.5
sg5
F0.5
ssg1307
(dp4528
S'em'
p4529
F0.5
sg5
F0.5
ssg2306
(dp4530
S'e'
F0.5
sg5
F0.5
ssg2818
(dp4531
S'eu'
p4532
F0.0014416146083613647
sg4372
F0.99759730898606436
sS'n\xc3\xa3o'
p4533
F0.00048053820278712159
sg5
F0.00048053820278712159
ssg1804
(dp4534
g5
F0.5
sg3554
F0.5
ssg2820
(dp4535
g3625
F0.5
sg5
F0.5
ssg3445
(dp4536
S','
F0.5
sg5
F0.5
ssg1769
(dp4537
g5
F0.5
sS'.'
F0.5
ssS't\xc3\xa1'
p4538
(dp4539
S'pronto'
p4540
F0.33333333333333331
sg3031
F0.33333333333333331
sg5
F0.33333333333333331
ssg1891
(dp4541
S'em'
p4542
F0.5
sg5
F0.5
ssg2624
(dp4543
S'a'
F0.5
sg5
F0.5
ssg4465
(dp4544
S'na'
p4545
F0.00038255547054322876
sS'est\xc3\xa1'
p4546
F0.99923488905891356
sg5
F0.00038255547054322876
ssg2822
(dp4547
S','
F0.5
sg5
F0.5
ssg2770
(dp4548
g5
F0.00040966816878328555
sS'.'
F0.99959033183121671
ssg716
(dp4549
S'faz'
p4550
F0.33333333333333331
sS'Horizonte'
p4551
F0.33333333333333331
sg5
F0.33333333333333331
ssg1750
(dp4552
g554
F0.33333333333333331
sS','
F0.33333333333333331
sg5
F0.33333333333333331
ssg1084
(dp4553
S'\xc3\xbanico'
p4554
F0.5
sg5
F0.5
ssg2826
(dp4555
g5
F0.5
sg3294
F0.5
ssg2924
(dp4556
S'pc'
p4557
F0.5
sg5
F0.5
ssS'um'
p4558
(dp4559
S'delicioso'
p4560
F0.076923076923076927
sS'mar'
p4561
F0.076923076923076927
sS'look'
p4562
F0.076923076923076927
sg2420
F0.076923076923076927
sS'almo\xc3\xa7o'
p4563
F0.076923076923076927
sS'mix'
p4564
F0.076923076923076927
sg3206
F0.076923076923076927
sS'bom'
p4565
F0.076923076923076927
sg3229
F0.076923076923076927
sg5
F0.076923076923076927
sg350
F0.076923076923076927
sS'email'
p4566
F0.076923076923076927
sS'armador'
p4567
F0.076923076923076927
ssS'minha'
p4568
(dp4569
S'bio'
p4570
F0.16666666666666666
sg2437
F0.16666666666666666
sS'amiga'
p4571
F0.16666666666666666
sS'casinha'
p4572
F0.16666666666666666
sg797
F0.16666666666666666
sg5
F0.16666666666666666
ssS'fica'
p4573
(dp4574
g3483
F0.5
sg5
F0.5
ssg3607
(dp4575
S'a'
F0.5
sg5
F0.5
ssg2792
(dp4576
g5
F1
ssS'coturno'
p4577
(dp4578
S','
F0.33333333333333331
sS'mais'
p4579
F0.33333333333333331
sg5
F0.33333333333333331
ssg2828
(dp4580
S'outra'
p4581
F0.5
sg5
F0.5
ssS'@mockbatreinamento'
p4582
(dp4583
g5
F0.5
sS'.'
F0.5
ssS'm'
(dp4584
g3329
F0.00021408691928923143
sg5
F0.00021408691928923143
sS'.'
F0.99957182616142148
ssg1424
(dp4585
g5
F0.25
sS'.'
F0.75
ssg1760
(dp4586
S'@boutiqueesplendor'
p4587
F0.33333333333333331
sg5
F0.33333333333333331
sS'.'
F0.33333333333333331
ssg2070
(dp4588
S'buy'
p4589
F0.5
sg5
F0.5
ssg2237
(dp4590
S','
F0.5
sg5
F0.5
ssS'Lindo'
p4591
(dp4592
g769
F0.25
sS'\xc3\xa9'
p4593
F0.25
sS','
F0.25
sg5
F0.25
ssg1737
(dp4594
g2210
F0.66666666666666663
sg5
F0.33333333333333331
ssg3177
(dp4595
g5
F0.5
sg131
F0.5
ssg2833
(dp4596
S'amo'
p4597
F0.5
sg5
F0.5
ssg489
(dp4598
g810
F0.5
sg5
F0.5
ssg2731
(dp4599
g5
F0.00036205648081100649
sS'.'
F0.999637943519189
ssS'@mgerheim'
p4600
(dp4601
S'!'
F0.5
sg5
F0.5
ssg2914
(dp4602
S'que'
p4603
F0.5
sg5
F0.5
ssg3640
(dp4604
S'na'
p4605
F0.5
sg5
F0.5
ssg1692
(dp4606
S'tantas'
p4607
F0.33333333333333331
sg5
F0.33333333333333331
sS'boa'
p4608
F0.33333333333333331
ssg3816
(dp4609
S'!'
F0.5
sg5
F0.5
ssg885
(dp4610
S','
F0.5
sg5
F0.5
ssg657
(dp4611
S'!'
F0.5
sg5
F0.5
ssg1578
(dp4612
S'e'
F0.99966318625799933
sg5
F0.00033681374200067362
ssS'temos'
p4613
(dp4614
S'com'
p4615
F0.5
sg5
F0.5
ssg303
(dp4616
S'com'
p4617
F0.5
sg5
F0.5
ssg3571
(dp4618
S'y'
F0.5
sg5
F0.5
ssg502
(dp4619
g5
F0.5
sS'.'
F0.5
ssg2846
(dp4620
g5
F1
ssg1855
(dp4621
g5
F0.33333333333333331
sS'pra'
p4622
F0.33333333333333331
sS'no'
p4623
F0.33333333333333331
ssg3698
(dp4624
g3310
F0.5
sg5
F0.5
ssg472
(dp4625
S'!'
F0.5
sg5
F0.5
ssS'e'
(dp4626
g3803
F2.1641274238227147e-05
sS'voc\xc3\xaa'
p4627
F4.3282548476454294e-05
sg3743
F0.050618940443213294
sS'pra'
p4628
F2.1641274238227147e-05
sS'muito'
p4629
F2.1641274238227147e-05
sg3566
F2.1641274238227147e-05
sS'Vida'
p4630
F2.1641274238227147e-05
sg4062
F2.1641274238227147e-05
sg3949
F2.1641274238227147e-05
sS'antibi\xc3\xb3ticos'
p4631
F2.1641274238227147e-05
sS'outro'
p4632
F2.1641274238227147e-05
sS'n\xc3\xa3o'
p4633
F2.1641274238227147e-05
sg4267
F0.042871364265927976
sg4311
F2.1641274238227147e-05
sS'altera\xc3\xa7\xc3\xb5es'
p4634
F0.032635041551246538
sg1379
F0.081825657894736836
sg1210
F0.047783933518005542
sS'poucos'
p4635
F2.1641274238227147e-05
sg4582
F2.1641274238227147e-05
sS'amino'
p4636
F2.1641274238227147e-05
sg4222
F2.1641274238227147e-05
sS'o'
F6.4923822714681444e-05
sS'use'
p4637
F0.030600761772853185
sS'mais'
p4638
F0.032375346260387815
sg4099
F2.1641274238227147e-05
sg3976
F2.1641274238227147e-05
sg3254
F2.1641274238227147e-05
sg1315
F2.1641274238227147e-05
sS'tu'
p4639
F2.1641274238227147e-05
sg3303
F2.1641274238227147e-05
sS'.'
F0.21455159279778394
sg1397
F2.1641274238227147e-05
sg4331
F2.1641274238227147e-05
sS'5'
F2.1641274238227147e-05
sS'tudo'
p4640
F2.1641274238227147e-05
sg2958
F2.1641274238227147e-05
sg2960
F0.065075311634349028
sS'te'
p4641
F2.1641274238227147e-05
sS'osteoporose'
p4642
F2.1641274238227147e-05
sg5
F2.1641274238227147e-05
sS'do'
p4643
F2.1641274238227147e-05
sg1877
F2.1641274238227147e-05
sg26
F2.1641274238227147e-05
sg834
F4.3282548476454294e-05
sS'esse'
p4644
F2.1641274238227147e-05
sS'usar'
p4645
F0.064231301939058169
sg4052
F2.1641274238227147e-05
sS'@rafaelaortiz86'
p4646
F2.1641274238227147e-05
sg556
F2.1641274238227147e-05
sS'a'
F0.064231301939058169
sg4481
F0.1757920706371191
sS'sigam'
p4647
F2.1641274238227147e-05
sg3430
F8.6565096952908587e-05
sg4600
F2.1641274238227147e-05
sS'entenda'
p4648
F0.00028133656509695293
sS'maravilhosa'
p4649
F2.1641274238227147e-05
sg2869
F2.1641274238227147e-05
sS'comprar'
p4650
F0.040231128808864265
sS'p'
F0.055639716066481992
sS'linhas'
p4651
F2.1641274238227147e-05
sg2410
F2.1641274238227147e-05
sS'premia\xc3\xa7\xc3\xa3o'
p4652
F2.1641274238227147e-05
sS'ainda'
p4653
F2.1641274238227147e-05
sg4577
F2.1641274238227147e-05
sS'os'
p4654
F2.1641274238227147e-05
sS'acompanhando'
p4655
F2.1641274238227147e-05
ssg630
(dp4656
S','
F0.5
sg5
F0.5
ssg2848
(dp4657
g5
F0.00068119891008174384
sg3144
F0.00068119891008174384
sS'.'
F0.99863760217983655
ssg2849
(dp4658
S'!'
F0.67803547066848568
sg5
F6.4964594296108619e-05
sS'.'
F0.3218995647372182
ssg2851
(dp4659
g5
F0.00014180374361883155
sS'.'
F0.99985819625638117
ssg2268
(dp4660
S'@luizabarcelos'
p4661
F0.5
sg5
F0.5
ssg4635
(dp4662
g3707
F0.5
sg5
F0.5
ssg8
(dp4663
S'2'
F0.99999994848548612
sg5
F5.151451382791216e-08
ssg2853
(dp4664
g5
F0.00011568718186024989
sS'.'
F0.99988431281813972
ssg2854
(dp4665
S'uma'
p4666
F0.5
sg5
F0.5
ssg2921
(dp4667
S'a'
F0.5
sg5
F0.5
ssg4360
(dp4668
g3321
F0.5
sg5
F0.5
ssg2632
(dp4669
g5
F0.5
sS'.'
F0.5
ssg2162
(dp4670
S'hehehe'
p4671
F0.25
sg2435
F0.25
sg5
F0.25
sS'm\xc3\xa1quinas'
p4672
F0.25
ssg4011
(dp4673
g2280
F0.5
sg5
F0.5
ssg689
(dp4674
S'Jitsu'
p4675
F0.5
sg5
F0.5
ssg2450
(dp4676
g5
F0.5
sS'ta'
p4677
F0.5
ssg2912
(dp4678
S'@mar'
p4679
F0.5
sg5
F0.5
ssg2451
(dp4680
g5
F1
ssg4642
(dp4681
g5
F0.5
sS'.'
F0.5
ssg3010
(dp4682
S'\xc3\xa9'
p4683
F0.5
sg5
F0.5
ssg4272
(dp4684
g5
F1
ssg4145
(dp4685
S'!'
F0.5
sg5
F0.5
ssg2453
(dp4686
g5
F0.00023218017181332715
sS'.'
F0.99976781982818663
ssg2454
(dp4687
S'!'
F0.99962264150943392
sg5
F0.00037735849056603772
ssg2457
(dp4688
S'!'
F0.5
sg5
F0.5
ssg4424
(dp4689
S'a'
F0.5
sg5
F0.5
ssg2984
(dp4690
g5
F1
ssS'P'
(dp4691
S'A'
F0.00010209290454313425
sg5
F0.00010209290454313425
sS'.'
F0.99979581419091368
ssS'99664'
p4692
(dp4693
g5
F0.00045724737082761773
sS'.'
F0.99954275262917236
ssg4473
(dp4694
g5
F0.00030497102775236352
sS'.'
F0.9996950289722476
ssg2460
(dp4695
g5
F1
ssg2461
(dp4696
g5
F1
ssg1008
(dp4697
S','
F0.99933199732798927
sg5
F0.0006680026720106881
ssS'\xc3\xa1gua'
p4698
(dp4699
S'na'
p4700
F0.5
sg5
F0.5
ssS'bonitas'
p4701
(dp4702
S'Good'
p4703
F0.5
sg5
F0.5
ssg2462
(dp4704
g5
F1
ssg2463
(dp4705
S'Eu'
p4706
F0.5
sg5
F0.5
ssg1518
(dp4707
g5
F1
ssS'Parceiro'
p4708
(dp4709
g5
F0.25
sg1048
F0.75
ssg3970
(dp4710
S'!'
F0.5
sg5
F0.5
ssS'Kimono'
p4711
(dp4712
S'de'
p4713
F0.5
sg5
F0.5
ssS'localizado'
p4714
(dp4715
S'em'
p4716
F0.5
sg5
F0.5
ssg3525
(dp4717
S'fotos'
p4718
F0.5
sg5
F0.5
ssg2467
(dp4719
g5
F0.00020247013565499088
sS'.'
F0.999797529864345
ssg1564
(dp4720
S'mais'
p4721
F0.5
sg5
F0.5
ssg416
(dp4722
g3136
F0.99933199732798927
sg5
F0.0006680026720106881
ssg2469
(dp4723
S'que'
p4724
F0.5
sg5
F0.5
ssg4546
(dp4725
S'no'
p4726
F0.99808941536110052
sS'super'
p4727
F0.00038211692777990065
sg4714
F0.00038211692777990065
sg1071
F0.00038211692777990065
sS'com'
p4728
F0.00038211692777990065
sg5
F0.00038211692777990065
ssg2276
(dp4729
S'o'
F0.5
sg5
F0.5
ssS'n\xc3\xa9'
p4730
(dp4731
g5
F0.33333333333333331
sS'?'
F0.33333333333333331
sS'.'
F0.33333333333333331
ssg1570
(dp4732
S'tem'
p4733
F0.5
sg5
F0.5
ssg3557
(dp4734
g5
F1
ssg2471
(dp4735
g5
F0.00029568302779420464
sg4070
F0.00029568302779420464
sg2291
F0.00029568302779420464
sg2970
F0.99911295091661734
ssg3289
(dp4736
S'proper'
p4737
F0.99970202622169246
sg5
F0.00029797377830750892
ssg2789
(dp4738
g5
F0.00038880248833592535
sS'n'
F0.99961119751166405
ssg2685
(dp4739
g1757
F0.99987044954009585
sg5
F0.00012955045990413266
ssS';'
(dp4740
S'D'
F0.99701135684399278
sS'there'
p4741
F0.0005977286312014345
sS'/'
F0.0005977286312014345
sS'3'
F0.0005977286312014345
sg2051
F0.0005977286312014345
sg5
F0.0005977286312014345
ssg814
(dp4742
S'para'
p4743
F0.5
sg5
F0.5
ssg2475
(dp4744
g5
F1
ssg1407
(dp4745
g861
F0.5
sg5
F0.5
ssg2476
(dp4746
g2103
F0.5
sg5
F0.5
ssg4242
(dp4747
g5
F1
ssS'Profissional'
p4748
(dp4749
S'com'
p4750
F0.5
sg5
F0.5
ssg2479
(dp4751
S'seus'
p4752
F0.75
sg5
F0.25
ssg2480
(dp4753
S'em'
p4754
F0.5
sg5
F0.5
ssg2481
(dp4755
S'!'
F0.99929725931131408
sg5
F0.00070274068868587491
ssg2791
(dp4756
g3561
F0.00072098053352559477
sg4711
F0.00072098053352559477
sg5
F0.00072098053352559477
sS'.'
F0.99783705839942316
ssS'39'
p4757
(dp4758
g5
F0.33333333333333331
sS','
F0.33333333333333331
sS'.'
F0.33333333333333331
ssg1510
(dp4759
S'/'
F0.5
sg5
F0.5
ssg3442
(dp4760
g5
F0.33333333333333331
sg4225
F0.66666666666666663
ssg1527
(dp4761
g1110
F0.0003996802557953637
sg46
F0.99880095923261392
sS'01'
p4762
F0.0003996802557953637
sg5
F0.0003996802557953637
ssg2487
(dp4763
g3740
F0.14285714285714285
sS'e'
F0.14285714285714285
sg4074
F0.14285714285714285
sg890
F0.14285714285714285
sS'.'
F0.14285714285714285
sS'com'
p4764
F0.14285714285714285
sg5
F0.14285714285714285
ssg3650
(dp4765
S'/'
F0.5
sg5
F0.5
ssg2488
(dp4766
S'joe'
p4767
F0.5
sg5
F0.5
ssg3057
(dp4768
g5
F0.5
sS'da'
p4769
F0.5
ssg2027
(dp4770
g5
F1
ssg945
(dp4771
g5
F1
ssg2754
(dp4772
g5
F0.00037383177570093456
sS'.'
F0.99962616822429906
ssS'whatsaap'
p4773
(dp4774
g1450
F0.5
sg5
F0.5
ssg2795
(dp4775
g5
F0.00066050198150594452
sS'.'
F0.99933949801849409
ssg1513
(dp4776
g5
F0.00033478406427854036
sS'.'
F0.99966521593572144
ssg3540
(dp4777
S'R'
F0.66666666666666663
sg5
F0.33333333333333331
ssg377
(dp4778
S'ver'
p4779
F0.5
sg5
F0.5
ssg4046
(dp4780
S'@hotmail'
p4781
F0.5
sg5
F0.5
ssg4637
(dp4782
S'a'
F0.99929328621908131
sg5
F0.00070671378091872788
ssg2492
(dp4783
g4095
F0.5
sg5
F0.5
ssS'from'
p4784
(dp4785
S'@xismarques-'
p4786
F0.5
sg5
F0.5
ssS'&'
(dp4787
S'&'
F0.66666662087598849
sS'o'
F0.33333331043799425
sg4249
F1.7171504314443489e-08
sg3378
F1.7171504314443489e-08
sS'fofa'
p4788
F1.7171504314443489e-08
sg5
F1.7171504314443489e-08
ssg2493
(dp4789
g5
F0.00025879917184265012
sS'.'
F0.99974120082815732
ssg2559
(dp4790
g5
F0.00021901007446342531
sS'.'
F0.99978098992553655
ssg2494
(dp4791
S'olha'
p4792
F0.5
sg5
F0.5
ssg3458
(dp4793
S'!'
F0.99950199203187251
sg5
F0.00049800796812749003
ssg4567
(dp4794
S'que'
p4795
F0.5
sg5
F0.5
ssg1257
(dp4796
g3753
F0.5
sg5
F0.5
ssg2274
(dp4797
g5
F0.5
sg4109
F0.5
ssg4572
(dp4798
g2096
F0.5
sg5
F0.5
ssg2499
(dp4799
g5
F1
ssg3868
(dp4800
g4029
F0.5
sg5
F0.5
ssg2504
(dp4801
g2318
F0.99996712580952696
sg5
F3.2874190473059604e-05
ssg2505
(dp4802
g5
F0.00026831231553528306
sS'.'
F0.99973168768446474
ssg2506
(dp4803
g3075
F0.5
sg5
F0.5
ssg1166
(dp4804
S'Qualidade'
p4805
F0.99954730647351742
sg5
F0.0004526935264825713
ssS'@lusuperhero'
p4806
(dp4807
S'!'
F0.5
sg5
F0.5
ssg1388
(dp4808
S'our'
p4809
F0.99970202622169246
sg5
F0.00029797377830750892
ssg3385
(dp4810
g3082
F0.5
sg5
F0.5
ssg2243
(dp4811
g214
F0.5
sg5
F0.5
ssg1723
(dp4812
S'!'
F0.25
sg14
F0.25
sS','
F0.25
sg5
F0.25
ssg2507
(dp4813
S'aqui'
p4814
F0.5
sg5
F0.5
ssg295
(dp4815
g5
F1
ssg3599
(dp4816
S','
F0.5
sg5
F0.5
ssS'lindona'
p4817
(dp4818
g5
F0.5
sS'.'
F0.5
ssg4631
(dp4819
g1980
F0.5
sg5
F0.5
ssg3855
(dp4820
g5
F0.00070671378091872788
sS'.'
F0.99929328621908131
ssg2509
(dp4821
g655
F0.5
sg5
F0.5
ssg2511
(dp4822
g5
F0.00029524653085326248
sS'.'
F0.99970475346914678
ssg4093
(dp4823
S'que'
p4824
F0.5
sg5
F0.5
ssg3163
(dp4825
S'!'
F0.5
sg5
F0.5
ssS'gosto'
p4826
(dp4827
S','
F0.5
sg5
F0.5
ssg510
(dp4828
g5
F1
ssg2513
(dp4829
g4317
F0.5
sg5
F0.5
ssg495
(dp4830
S'TERRESTRIS'
p4831
F0.99933199732798927
sg5
F0.0006680026720106881
ssg2546
(dp4832
g1372
F0.5
sg5
F0.5
ssg4298
(dp4833
S','
F0.5
sg5
F0.5
ssS'especial'
p4834
(dp4835
S'a'
F0.5
sg5
F0.5
ssg1746
(dp4836
g5
F0.5
sS'da'
p4837
F0.5
ssg4218
(dp4838
S'em'
p4839
F0.99987532726592698
sg5
F0.00012467273407305821
ssS'Q'
(dp4840
S'48'
p4841
F0.5
sg5
F0.5
ssg2521
(dp4842
g5
F0.5
sS'no'
p4843
F0.5
ssg2522
(dp4844
g3822
F0.5
sg5
F0.5
ssg4563
(dp4845
g4230
F0.5
sg5
F0.5
ssg4661
(dp4846
g1064
F0.5
sg5
F0.5
ssg509
(dp4847
g5
F0.5
sS'.'
F0.5
ssg3578
(dp4848
S'para'
p4849
F0.5
sg5
F0.5
ssg1654
(dp4850
g151
F0.99962990377498151
sg5
F0.00037009622501850479
ssg2304
(dp4851
S'!'
F0.70826580226904379
sS'11997192845'
p4852
F0.2916095249968832
sg5
F0.00012467273407305821
ssg2235
(dp4853
S'nesse'
p4854
F0.5
sg5
F0.5
ssg3850
(dp4855
S'pela'
p4856
F0.5
sg5
F0.5
ssg1136
(dp4857
S'!'
F0.14285714285714285
sS','
F0.14285714285714285
sS'.'
F0.14285714285714285
sg4730
F0.14285714285714285
sS'muda'
p4858
F0.14285714285714285
sg5
F0.14285714285714285
sg188
F0.14285714285714285
ssS'medinho'
p4859
(dp4860
S'hahahahaha'
p4861
F0.5
sg5
F0.5
ssS'contato'
p4862
(dp4863
g4086
F0.5
sg5
F0.5
ssg2123
(dp4864
g5
F0.5
sS'.'
F0.5
ssS'primera'
p4865
(dp4866
S'!'
F0.5
sg5
F0.5
ssg2339
(dp4867
S'para'
p4868
F0.5
sg5
F0.5
ssg4653
(dp4869
g5
F0.20000000000000001
sS'te'
p4870
F0.20000000000000001
sg81
F0.20000000000000001
sg3006
F0.20000000000000001
sS'est\xc3\xa1'
p4871
F0.20000000000000001
ssg1044
(dp4872
g5
F0.5
sS'.'
F0.5
ssg2530
(dp4873
S'tudo'
p4874
F0.5
sg5
F0.5
ssg3620
(dp4875
g5
F1
ssg2533
(dp4876
g5
F0.00040257648953301127
sS'.'
F0.99959742351046699
ssg4281
(dp4877
S'?'
F0.99977288212582327
sg5
F0.00022711787417669771
ssg2537
(dp4878
g5
F0.0003734129947722181
sS'.'
F0.99962658700522777
ssg3787
(dp4879
S','
F0.5
sg5
F0.5
ssg2239
(dp4880
g595
F0.33333333333333331
sS'ao'
p4881
F0.33333333333333331
sg5
F0.33333333333333331
ssg2674
(dp4882
S'de'
p4883
F0.5
sg5
F0.5
ssg4227
(dp4884
g311
F0.66666666666666663
sg5
F0.33333333333333331
ssg1249
(dp4885
g3711
F0.5
sg5
F0.5
ssg3864
(dp4886
g4865
F0.33333333333333331
sg3016
F0.33333333333333331
sg5
F0.33333333333333331
ssS'lo'
p4887
(dp4888
S'falsa'
p4889
F0.5
sg5
F0.5
ssg3965
(dp4890
g5
F0.5
sS'he'
p4891
F0.5
ssg1847
(dp4892
S'do'
p4893
F0.5
sg5
F0.5
ssg952
(dp4894
g5
F1
ssg2539
(dp4895
S'que'
p4896
F0.99966318625799933
sg5
F0.00033681374200067362
ssg2540
(dp4897
g5
F0.00048100048100048102
sS'.'
F0.99951899951899947
ssS'2014'
p4898
(dp4899
S'!'
F0.5
sg5
F0.5
ssg2541
(dp4900
g5
F0.00048146364949446316
sS'.'
F0.99951853635050558
ssg2542
(dp4901
g5
F0.00028702640642939151
sS'.'
F0.99971297359357059
ssg483
(dp4902
S'de'
p4903
F0.5
sg5
F0.5
ssg2543
(dp4904
g4209
F0.5
sg1524
F0.49981371087928467
sg5
F0.00018628912071535022
ssg2544
(dp4905
g4613
F0.5
sg5
F0.5
ssg2545
(dp4906
g772
F0.5
sg5
F0.5
ssg4324
(dp4907
S'e'
F0.5
sg5
F0.5
ssg2091
(dp4908
g5
F1
ssS'13h'
p4909
(dp4910
g1329
F0.5
sg5
F0.5
ssg2548
(dp4911
g5
F0.5
sS'.'
F0.5
ssg4213
(dp4912
S'mais'
p4913
F0.00029577048210588581
sS'o'
F0.99940845903578823
sg5
F0.00029577048210588581
ssg1073
(dp4914
g3796
F0.20000000000000001
sg4909
F0.20000000000000001
sg3415
F0.20000000000000001
sg1258
F0.20000000000000001
sg5
F0.20000000000000001
ssg4646
(dp4915
S'!'
F0.5
sg5
F0.5
ssg2994
(dp4916
g3692
F0.99955810870525852
sg5
F0.00044189129474149361
ssg2198
(dp4917
S'e'
F0.5
sg5
F0.5
ssg4607
(dp4918
S'passeios'
p4919
F0.5
sg5
F0.5
ssg4354
(dp4920
g5
F0.5
sS'No'
p4921
F0.5
ssg4672
(dp4922
g5
F0.5
sS'.'
F0.5
ssg2551
(dp4923
g1535
F0.5
sg5
F0.5
ssg1199
(dp4924
S'Eu'
p4925
F0.5
sg5
F0.5
ssg4679
(dp4926
g5
F0.5
sS'.'
F0.5
ssg3443
(dp4927
S'?'
F0.5
sg5
F0.5
ssg2554
(dp4928
g5
F0.5
sg682
F0.5
ssg2517
(dp4929
S'meu'
p4930
F0.5
sg5
F0.5
ssg2555
(dp4931
g5
F0.0002242152466367713
sS'.'
F0.99977578475336326
ssg4809
(dp4932
S'publication'
p4933
F0.99970202622169246
sg5
F0.00029797377830750892
ssg2165
(dp4934
g4692
F0.99954275262917236
sg5
F0.00045724737082761773
ssg3857
(dp4935
g868
F0.5
sg5
F0.5
ssg2397
(dp4936
g5
F0.25
sg4708
F0.75
ssg2080
(dp4937
S'do'
p4938
F0.25
sS'.'
F0.25
sg5
F0.25
sS'irm\xc3\xa3o'
p4939
F0.25
ssg2452
(dp4940
S'vai'
p4941
F0.5
sg5
F0.5
ssS'ref'
p4942
(dp4943
g5
F0.5
sS'.'
F0.5
ssg2813
(dp4944
g3673
F0.5
sg5
F0.5
ssg674
(dp4945
g3020
F0.99933730947647448
sg5
F0.00066269052352551359
ssg434
(dp4946
S'a'
F0.5
sg5
F0.5
ssg1755
(dp4947
S'de'
p4948
F0.5
sg5
F0.5
ssg1687
(dp4949
S'ai'
p4950
F0.33333333333333331
sg5
F0.33333333333333331
sS'.'
F0.33333333333333331
ssg2564
(dp4951
g4826
F0.5
sg5
F0.5
ssg4896
(dp4952
g3149
F0.00013379716350013379
sS'vc'
p4953
F0.00026759432700026759
sS'tem'
p4954
F0.00013379716350013379
sg3514
F0.00013379716350013379
sg5
F0.00013379716350013379
sg3035
F0.00013379716350013379
sS'j\xc3\xa1'
p4955
F0.00013379716350013379
sS'eu'
p4956
F0.00013379716350013379
sg1956
F0.00013379716350013379
sS'auxilia'
p4957
F0.00013379716350013379
sg1080
F0.00013379716350013379
sg3188
F0.00013379716350013379
sS'fotos'
p4958
F0.00013379716350013379
sS'tu'
p4959
F0.00013379716350013379
sS'hoje'
p4960
F0.00013379716350013379
sg3402
F0.00013379716350013379
sg3601
F0.00013379716350013379
sg23
F0.00013379716350013379
sS'lindo'
p4961
F0.00013379716350013379
sS'te'
p4962
F0.00013379716350013379
sS't\xc3\xa1'
p4963
F0.00013379716350013379
sS'faz'
p4964
F0.00013379716350013379
sg3971
F0.00026759432700026759
sg4344
F0.20016055659620016
sg103
F0.00013379716350013379
sg245
F0.00013379716350013379
sS'\xc3\xa9'
p4965
F0.00013379716350013379
sg3272
F0.00013379716350013379
sS'me'
p4966
F0.00013379716350013379
sg2990
F0.39710998126839708
sS'a'
F0.39710998126839708
sg1916
F0.00013379716350013379
sg652
F0.00013379716350013379
sS'isso'
p4967
F0.00026759432700026759
sS's\xc3\xa3o'
p4968
F0.00013379716350013379
sg4558
F0.00013379716350013379
sS'fa\xc3\xa7o'
p4969
F0.00013379716350013379
sS'trabalham'
p4970
F0.00013379716350013379
sg4336
F0.00013379716350013379
sS'vier'
p4971
F0.00013379716350013379
sg1599
F0.00013379716350013379
sS'se'
p4972
F0.00013379716350013379
ssg3157
(dp4973
g5
F1
ssg2715
(dp4974
g1068
F0.5
sg5
F0.5
ssg2565
(dp4975
S'em'
p4976
F0.5
sg5
F0.5
ssg3152
(dp4977
S'na'
p4978
F0.5
sg5
F0.5
ssg2658
(dp4979
S'quando'
p4980
F0.5
sg5
F0.5
ssg999
(dp4981
S','
F0.5
sg5
F0.5
ssg4371
(dp4982
g5
F0.5
sS'.'
F0.5
ssg3447
(dp4983
g5
F0.5
sg1302
F0.5
ssg4741
(dp4984
S'are'
p4985
F0.5
sg5
F0.5
ssg3077
(dp4986
g3506
F0.5
sg5
F0.5
ssg2571
(dp4987
g5
F1
ssg3146
(dp4988
g5
F1
ssg2573
(dp4989
g5
F1
ssg2574
(dp4990
S'por'
p4991
F0.5
sg5
F0.5
ssg1290
(dp4992
g777
F0.5
sg5
F0.5
ssg2575
(dp4993
S'a'
F0.21403486962737359
sg5
F3.1078099263449046e-05
sS'?'
F0.7858718960748361
sS'no'
p4994
F6.2156198526898092e-05
ssg4933
(dp4995
g3287
F0.99970202622169246
sg5
F0.00029797377830750892
ssS'312'
p4996
(dp4997
S','
F0.5
sg5
F0.5
ssg3865
(dp4998
g3746
F0.5
sg5
F0.5
ssg4429
(dp4999
S'/'
F0.5
sg5
F0.5
ssg2977
(dp5000
g5
F0.5
sS'.'
F0.5
ssg4069
(dp5001
S'vc'
p5002
F0.5
sg5
F0.5
ssg2584
(dp5003
g5
F1
ssS'quando'
p5004
(dp5005
S'ainda'
p5006
F0.20000000000000001
sS'vai'
p5007
F0.20000000000000001
sg3283
F0.20000000000000001
sg5
F0.20000000000000001
sg3630
F0.20000000000000001
ssg1626
(dp5008
S','
F0.99933199732798927
sg5
F0.0006680026720106881
ssg1670
(dp5009
g4773
F0.5
sg5
F0.5
ssg2058
(dp5010
S'e'
F0.5
sg5
F0.5
ssS'R'
(dp5011
g4757
F0.00015026296018031557
sS'14'
p5012
F0.00015026296018031557
sg4996
F0.00015026296018031557
sS'42'
p5013
F0.00015026296018031557
sg3918
F0.00015026296018031557
sS'40'
p5014
F0.00030052592036063113
sS'.'
F0.997145003756574
sS'1'
F0.0015026296018031556
sg3178
F0.00015026296018031557
sg5
F0.00015026296018031557
ssg2592
(dp5015
g5
F0.5
sS'.'
F0.5
ssg3869
(dp5016
g3336
F0.5
sg5
F0.5
ssg2596
(dp5017
S'!'
F0.99968284173802724
sg5
F0.00031715826197272439
ssS'colar'
p5018
(dp5019
S'qualquer'
p5020
F0.5
sg5
F0.5
ssg3618
(dp5021
S'os'
p5022
F0.33333333333333331
sS'?'
F0.33333333333333331
sg5
F0.33333333333333331
ssg4478
(dp5023
S'de'
p5024
F0.5
sg5
F0.5
ssg3444
(dp5025
g276
F0.5
sg5
F0.5
ssg4889
(dp5026
S'que'
p5027
F0.5
sg5
F0.5
ssg2967
(dp5028
g4115
F0.5
sg5
F0.5
ssg1252
(dp5029
g4517
F0.5
sg5
F0.5
ssg3861
(dp5030
g5
F0.5
sS'no'
p5031
F0.5
ssS'broo'
p5032
(dp5033
g2364
F0.5
sg5
F0.5
ssg1447
(dp5034
g38
F0.5
sg5
F0.5
ssg4201
(dp5035
S'!'
F0.5
sg5
F0.5
ssg4589
(dp5036
g3013
F0.5
sg5
F0.5
ssg2016
(dp5037
S','
F0.5
sg5
F0.5
ssg4805
(dp5038
S'e'
F0.99954730647351742
sg5
F0.0004526935264825713
ssg4581
(dp5039
g5
F0.5
sS'rss'
p5040
F0.5
ssg3165
(dp5041
g5
F0.5
sS'.'
F0.5
ssg2526
(dp5042
g5
F1
ssg493
(dp5043
S','
F0.5
sg5
F0.5
ssg961
(dp5044
g5
F0.5
sg4322
F0.5
ssg1228
(dp5045
S'de'
p5046
F0.33333333333333331
sg5
F0.33333333333333331
sg3480
F0.33333333333333331
ssg4498
(dp5047
S','
F0.5
sg5
F0.5
ssg1743
(dp5048
g3089
F0.33333333333333331
sg5
F0.33333333333333331
sS'Maria'
p5049
F0.33333333333333331
ssg4961
(dp5050
S'amor'
p5051
F0.20000000000000001
sg2296
F0.20000000000000001
sg5
F0.20000000000000001
sS'e'
F0.20000000000000001
sS'do'
p5052
F0.20000000000000001
ssg2614
(dp5053
g3375
F0.34705104469717007
sS'true'
p5054
F0.6528960592435864
sg5
F5.2896059243586351e-05
ssS'destas'
p5055
(dp5056
g3927
F0.99933730947647448
sg5
F0.00066269052352551359
ssg4136
(dp5057
S'!'
F0.20000000000000001
sS'em'
p5058
F0.20000000000000001
sS'\xc3\xa9'
p5059
F0.20000000000000001
sg4806
F0.20000000000000001
sg5
F0.20000000000000001
ssS'J'
(dp5060
g5
F0.00047573739295908661
sS'.'
F0.99952426260704086
ssg2668
(dp5061
S'as'
p5062
F0.00042283298097251583
sg5
F0.00042283298097251583
sS'.'
F0.99915433403805498
ssg3448
(dp5063
S'you'
p5064
F0.5
sg5
F0.5
ssg1748
(dp5065
S'de'
p5066
F0.5
sg5
F0.5
ssg3298
(dp5067
S'em'
p5068
F0.5
sg5
F0.5
ssg4206
(dp5069
g3530
F0.5
sg5
F0.5
ssg2618
(dp5070
g5
F1
ssS'fazendo'
p5071
(dp5072
S'os'
p5073
F0.5
sg5
F0.5
ssg1014
(dp5074
S','
F0.5
sg5
F0.5
ssg1409
(dp5075
g5
F1
ssg2626
(dp5076
g5
F1
ssS'Por'
p5077
(dp5078
S'este'
p5079
F0.5
sg5
F0.5
ssg1753
(dp5080
S','
F0.5
sg5
F0.5
ssg1432
(dp5081
S'se'
p5082
F0.5
sg5
F0.5
ssg2630
(dp5083
g5032
F0.5
sg5
F0.5
ssg4655
(dp5084
S'!'
F0.5
sg5
F0.5
ssg4148
(dp5085
g3996
F0.5
sg5
F0.5
ssg964
(dp5086
S'\xc3\xa0s'
p5087
F0.5
sg5
F0.5
ssg4524
(dp5088
S','
F0.5
sg5
F0.5
ssg701
(dp5089
g1911
F0.5
sg5
F0.5
ssg3809
(dp5090
S'@bichosdomundo'
p5091
F0.99968857053877291
sg5
F0.0003114294612270321
ssg1173
(dp5092
g5
F0.00074738415545590436
sS'no'
p5093
F0.99925261584454406
ssg4426
(dp5094
g5
F0.5
sS'.'
F0.5
ssg3761
(dp5095
S'!'
F0.5
sg5
F0.5
ssg703
(dp5096
S'!'
F0.5
sg5
F0.5
ssg1801
(dp5097
g5
F0.25
sS'.'
F0.75
ssg4508
(dp5098
g5
F0.33333333333333331
sS'no'
p5099
F0.66666666666666663
ssg4244
(dp5100
S'em'
p5101
F0.5
sg5
F0.5
ssg1002
(dp5102
S'e'
F0.5
sg5
F0.5
ssg168
(dp5103
g5
F1
ssS'tudo'
p5104
(dp5105
S'em'
p5106
F0.055555555555555552
sg3159
F0.055555555555555552
sS'de'
p5107
F0.055555555555555552
sS'hj'
p5108
F0.055555555555555552
sS'com'
p5109
F0.72222222222222221
sg5
F0.055555555555555552
ssg1699
(dp5110
g4499
F0.5
sg5
F0.5
ssg2644
(dp5111
g5
F0.00013053126223730585
sS'.'
F0.99986946873776272
ssg3192
(dp5112
g1975
F0.5
sg5
F0.5
ssg2646
(dp5113
g5
F0.00041928721174004191
sS'.'
F0.99958071278826
ssg3245
(dp5114
S'E'
F0.5
sg5
F0.5
ssg932
(dp5115
S','
F0.5
sg5
F0.5
ssg4248
(dp5116
g5
F0.5
sS'&'
F0.5
ssg2648
(dp5117
S'2'
F0.5
sg5
F0.5
ssg2649
(dp5118
S'em'
p5119
F0.99980846581114724
sg5
F0.0001915341888527102
ssg4521
(dp5120
g5
F0.00029585798816568048
sS'.'
F0.99970414201183433
ssg514
(dp5121
g1630
F0.5
sg5
F0.5
ssg1896
(dp5122
g1818
F0.5
sg5
F0.5
ssg1115
(dp5123
g720
F0.33333333333333331
sS'?'
F0.33333333333333331
sg5
F0.33333333333333331
ssg4519
(dp5124
g281
F0.5
sg5
F0.5
ssg268
(dp5125
S'A'
F0.5
sg5
F0.5
ssS'h'
(dp5126
g5
F1
ssg411
(dp5127
S'e'
F0.5
sg5
F0.5
ssg4212
(dp5128
S'ou'
p5129
F0.99925261584454406
sg5
F0.00074738415545590436
ssg4652
(dp5130
g4898
F0.5
sg5
F0.5
ssg2056
(dp5131
S','
F0.5
sg5
F0.5
ssg4971
(dp5132
S'na'
p5133
F0.5
sg5
F0.5
ssg2659
(dp5134
S'foi'
p5135
F0.5
sg5
F0.5
ssg950
(dp5136
g1025
F0.5
sg5
F0.5
ssg2660
(dp5137
g5
F0.00033046926635822867
sS'.'
F0.99966953073364173
ssg2233
(dp5138
g1374
F0.5
sg5
F0.5
ssg2502
(dp5139
g5
F0.5
sS'no'
p5140
F0.5
ssg2662
(dp5141
g5
F7.9840319361277449e-05
sS'.'
F0.99992015968063874
ssg2867
(dp5142
g2068
F0.5
sg5
F0.5
ssg1802
(dp5143
S'!'
F0.00017593244194229416
sg3436
F0.99947220267417314
sS','
F0.00017593244194229416
sg5
F0.00017593244194229416
ssg2758
(dp5144
g5
F1
ssg3899
(dp5145
S'de'
p5146
F0.5
sg5
F0.5
ssg3291
(dp5147
g4490
F0.5
sg5
F0.5
ssg1573
(dp5148
g286
F0.5
sg5
F0.5
ssS'mexicana'
p5149
(dp5150
S'na'
p5151
F0.5
sg5
F0.5
ssg2478
(dp5152
g5
F0.00044111160123511248
sg3060
F0.99955888839876483
ssg1778
(dp5153
g5
F1
ssg2671
(dp5154
g4483
F0.5
sg5
F0.5
ssg2672
(dp5155
g3001
F0.5
sg5
F0.5
ssg1153
(dp5156
S'de'
p5157
F0.99954710144927539
sg5
F0.00045289855072463769
ssg3170
(dp5158
g5
F0.33333333333333331
sS'?'
F0.33333333333333331
sS'.'
F0.33333333333333331
ssg63
(dp5159
S','
F0.5
sg5
F0.5
ssg3175
(dp5160
g4862
F0.33333333333333331
sS'para'
p5161
F0.33333333333333331
sg5
F0.33333333333333331
ssg4129
(dp5162
S','
F0.99933199732798927
sg5
F0.0006680026720106881
ssg3890
(dp5163
g4784
F0.5
sg5
F0.5
ssg973
(dp5164
S','
F0.5
sg5
F0.5
ssg2677
(dp5165
S'!'
F0.99982412944073162
sg5
F0.00017587055926837847
ssS'tirando'
p5166
(dp5167
S'as'
p5168
F0.5
sg5
F0.5
ssS'S'
(dp5169
S'2'
F0.34498590414820779
sg5
F8.0547724526782116e-05
sS'.'
F0.65493354812726545
ssg4970
(dp5170
S'pelo'
p5171
F0.5
sg5
F0.5
ssg4767
(dp5172
g3011
F0.5
sg5
F0.5
ssg4852
(dp5173
S'/'
F0.99957264957264957
sg5
F0.00042735042735042735
ssg4814
(dp5174
S'!'
F0.20000000000000001
sS'em'
p5175
F0.10000000000000001
sS'pra'
p5176
F0.10000000000000001
sS'.'
F0.20000000000000001
sS'meu'
p5177
F0.10000000000000001
sg4376
F0.10000000000000001
sS'com'
p5178
F0.10000000000000001
sg5
F0.10000000000000001
ssg1472
(dp5179
g5
F1
ssg960
(dp5180
S','
F0.5
sg5
F0.5
ssg3835
(dp5181
S'estou'
p5182
F0.5
sg5
F0.5
ssg2689
(dp5183
g5
F0.5
sS'.'
F0.5
ssg2690
(dp5184
g5
F1
ssg461
(dp5185
S'e'
F0.5
sg5
F0.5
ssg2693
(dp5186
S'!'
F0.9993127147766323
sg5
F0.00068728522336769765
ssg2694
(dp5187
g5
F1
ssg947
(dp5188
S'do'
p5189
F0.5
sg5
F0.5
ssg316
(dp5190
g745
F0.5
sg5
F0.5
ssg2696
(dp5191
S','
F0.5
sg5
F0.5
ssg2047
(dp5192
g4349
F0.33333333333333331
sg1982
F0.33333333333333331
sg5
F0.33333333333333331
ssg2701
(dp5193
S'!'
F0.34370860927152319
sg5
F9.4607379375591296e-05
sS'.'
F0.65619678334910125
ssg457
(dp5194
S'20'
p5195
F0.5
sg5
F0.5
ssg1195
(dp5196
g3292
F0.25
sg3992
F0.25
sg2127
F0.25
sg5
F0.25
ssg3435
(dp5197
g5
F1
ssg1520
(dp5198
S'com'
p5199
F0.25
sS','
F0.5
sg5
F0.25
ssg3454
(dp5200
g1693
F0.5
sg5
F0.5
ssg2706
(dp5201
S'o'
F0.99954170485792848
sg5
F0.00045829514207149406
ssg4333
(dp5202
g3243
F0.5
sg5
F0.5
ssg2707
(dp5203
g5
F1
ssg2845
(dp5204
g3785
F0.5
sg5
F0.5
ssg837
(dp5205
g5
F0.33333333333333331
sg3946
F0.33333333333333331
sS'treinos'
p5206
F0.33333333333333331
ssg4
(dp5207
g28
F0.5
sg5
F0.5
ssg4365
(dp5208
g5
F0.5
sS'.'
F0.5
ssg3870
(dp5209
S'30'
p5210
F0.5
sg5
F0.5
ssg1874
(dp5211
g5
F0.20000000000000001
sS','
F0.20000000000000001
sg2366
F0.20000000000000001
sS'.'
F0.40000000000000002
ssg2710
(dp5212
S'a'
F0.5
sg5
F0.5
ssg478
(dp5213
g5
F1
ssg3099
(dp5214
g4025
F0.5
sg5
F0.5
ssg1412
(dp5215
g5
F1
ssg4786
(dp5216
g3751
F0.5
sg5
F0.5
ssg2716
(dp5217
g5
F0.00043859649122807018
sS'.'
F0.99956140350877198
ssg4551
(dp5218
S'com'
p5219
F0.5
sg5
F0.5
ssg844
(dp5220
g4748
F0.5
sg5
F0.5
ssg2717
(dp5221
g5
F0.00041928721174004191
sS'.'
F0.99958071278826
ssg2831
(dp5222
g5
F0.5
sS'no'
p5223
F0.5
ssg4496
(dp5224
S'a'
F0.5
sg5
F0.5
ssg2718
(dp5225
S'me'
p5226
F0.5
sg5
F0.5
ssg3849
(dp5227
S'me'
p5228
F0.090909090909090912
sS'para'
p5229
F0.090909090909090912
sS'sempre'
p5230
F0.090909090909090912
sS'que'
p5231
F0.090909090909090912
sS'?'
F0.090909090909090912
sg3140
F0.090909090909090912
sg3940
F0.090909090909090912
sg5
F0.090909090909090912
sS'tb'
p5232
F0.090909090909090912
sg4400
F0.090909090909090912
sS'nos'
p5233
F0.090909090909090912
ssg2234
(dp5234
g4887
F0.5
sg5
F0.5
ssg2271
(dp5235
S'desse'
p5236
F0.5
sg5
F0.5
ssg83
(dp5237
S'vc'
p5238
F0.5
sg5
F0.5
ssg3969
(dp5239
S'www'
p5240
F0.99754701553556824
sS'e'
F0.0016353229762878169
sS'o'
F0.00040883074407195422
sg5
F0.00040883074407195422
ssg1895
(dp5241
S'que'
p5242
F0.5
sg5
F0.5
ssg374
(dp5243
g5018
F0.5
sg5
F0.5
ssg2720
(dp5244
S'em'
p5245
F0.99850634802091109
sS'de'
p5246
F0.0007468259895444362
sg5
F0.0007468259895444362
ssg1557
(dp5247
g5
F0.33333333333333331
sS'ne'
p5248
F0.33333333333333331
sS'.'
F0.33333333333333331
ssg2375
(dp5249
S'@angeloandradee'
p5250
F0.33333333333333331
sg5
F0.33333333333333331
sS'da'
p5251
F0.33333333333333331
ssg1968
(dp5252
S'para'
p5253
F0.5
sg5
F0.5
ssg963
(dp5254
S'\xc3\xa9'
p5255
F0.5
sg5
F0.5
ssg2726
(dp5256
S'\xc3\xa9'
p5257
F0.5
sg5
F0.5
ssg3926
(dp5258
S'pelo'
p5259
F0.33333333333333331
sg845
F0.33333333333333331
sg5
F0.33333333333333331
ssg2727
(dp5260
g5077
F0.5
sg5
F0.5
ssg4193
(dp5261
g4308
F0.99951290793960057
sg5
F0.00048709206039941551
ssg2547
(dp5262
g5
F1
ssg4346
(dp5263
S','
F0.99933199732798927
sg5
F0.0006680026720106881
ssg588
(dp5264
g5
F0.00022603978300180831
sS'.'
F0.99977396021699816
ssg4290
(dp5265
S'boa'
p5266
F0.5
sg5
F0.5
ssg1106
(dp5267
S'uma'
p5268
F0.5
sg5
F0.5
ssg1593
(dp5269
S'j\xc3\xa1'
p5270
F0.5
sg5
F0.5
ssg974
(dp5271
S'!'
F0.5
sg5
F0.5
ssg445
(dp5272
S','
F0.5
sg5
F0.5
ssg452
(dp5273
S'de'
p5274
F0.5
sg5
F0.5
ssg3719
(dp5275
S'nesse'
p5276
F0.5
sg5
F0.5
ssg2735
(dp5277
S'Hubo'
p5278
F0.5
sg5
F0.5
ssg3737
(dp5279
g5
F0.5
sS'McOfertas'
p5280
F0.5
ssg1584
(dp5281
g5
F1
ssg640
(dp5282
S'!'
F0.5
sg5
F0.5
ssS'i'
(dp5283
S'em'
p5284
F0.00046948356807511736
sS'a'
F0.00046948356807511736
sg3350
F0.00046948356807511736
sS'.'
F0.99765258215962438
sS'v'
F0.00046948356807511736
sg5
F0.00046948356807511736
ssg1992
(dp5285
g5
F1
ssg2738
(dp5286
g3759
F0.5
sg5
F0.5
ssg4831
(dp5287
S','
F0.99933199732798927
sg5
F0.0006680026720106881
ssg626
(dp5288
g4942
F0.5
sg5
F0.5
ssg3173
(dp5289
S','
F0.5
sg5
F0.5
ssg2739
(dp5290
g607
F0.99927325581395354
sg5
F0.00072674418604651162
ssg2341
(dp5291
g2131
F0.5
sg5
F0.5
ssg3817
(dp5292
S'i'
F0.5
sg5
F0.5
ssg2744
(dp5293
g5
F1
ssg1813
(dp5294
g1410
F0.5
sg5
F0.5
ssg385
(dp5295
g1095
F0.5
sg5
F0.5
ssg734
(dp5296
S'\xc3\xa0'
p5297
F0.33333333333333331
sg5
F0.33333333333333331
sS'das'
p5298
F0.33333333333333331
ssg4433
(dp5299
S'!'
F0.99281092739036669
sg3635
F0.00071890726096333576
sg2973
F0.00071890726096333576
sS'm'
F0.00071890726096333576
sg5
F0.00071890726096333576
sS'o'
F0.00071890726096333576
sg4151
F0.00071890726096333576
sg1475
F0.0014378145219266715
sg4538
F0.00071890726096333576
sg3574
F0.00071890726096333576
ssg2747
(dp5300
g5
F0.00044286979627989372
sS'.'
F0.99955713020372006
ssg4634
(dp5301
g5055
F0.99933730947647448
sg5
F0.00066269052352551359
ssg4185
(dp5302
g1078
F0.5
sg5
F0.5
ssg1506
(dp5303
g4834
F0.5
sg5
F0.5
ssg4032
(dp5304
S'!'
F0.5
sg5
F0.5
ssg4039
(dp5305
g5
F0.5
sS'.'
F0.5
ssg2749
(dp5306
g5
F0.00026260504201680671
sS'.'
F0.99973739495798319
ssg5280
(dp5307
S','
F0.5
sg5
F0.5
ssg2077
(dp5308
S'muito'
p5309
F0.33333333333333331
sS'fazer'
p5310
F0.33333333333333331
sg5
F0.33333333333333331
ssg3729
(dp5311
g3534
F0.5
sg5
F0.5
ssg917
(dp5312
S'a'
F0.5
sg5
F0.5
ssg2751
(dp5313
S'faz'
p5314
F0.5
sg5
F0.5
ssg1979
(dp5315
S'em'
p5316
F0.5
sg5
F0.5
ssg1927
(dp5317
g4701
F0.5
sg5
F0.5
ssg2449
(dp5318
S'diego'
p5319
F0.5
sg5
F0.5
ssS'T'
(dp5320
g5
F0.00018409425625920471
sS'.'
F0.9998159057437408
ssg677
(dp5321
g5104
F0.9285714285714286
sg5
F0.071428571428571425
ssg907
(dp5322
g3398
F0.5
sg5
F0.5
ssg2759
(dp5323
S'!'
F0.99968583097706565
sg5
F0.00031416902293433867
ssg980
(dp5324
S'estar\xc3\xa1'
p5325
F0.5
sg5
F0.5
ssg4450
(dp5326
g3224
F0.5
sg5
F0.5
ssS'Bebezinho'
p5327
(dp5328
g3908
F0.5
sg5
F0.5
ssg412
(dp5329
g765
F0.99933199732798927
sg5
F0.0006680026720106881
ssg414
(dp5330
S','
F0.99933199732798927
sg5
F0.0006680026720106881
ssg3357
(dp5331
g1959
F0.5
sg5
F0.5
ssg2764
(dp5332
g5
F0.0001508978421608571
sS'.'
F0.99984910215783918
ssg1441
(dp5333
S'de'
p5334
F0.5
sg5
F0.5
ssg4560
(dp5335
S'mini'
p5336
F0.5
sg5
F0.5
ssg3098
(dp5337
S'Foto'
p5338
F0.99955810870525852
sg5
F0.00044189129474149361
ssg3853
(dp5339
g4394
F0.5
sg5
F0.5
ssg2823
(dp5340
S'/'
F0.5
sg5
F0.5
ssg2771
(dp5341
S'tudo'
p5342
F0.5
sg5
F0.5
ssg4737
(dp5343
g136
F0.99970202622169246
sg5
F0.00029797377830750892
ssg423
(dp5344
g5
F1
ssg782
(dp5345
S','
F0.5
sg5
F0.5
ssg4675
(dp5346
g5
F0.5
sS'.'
F0.5
ssg2775
(dp5347
S'se'
p5348
F0.5
sg5
F0.5
ssg2776
(dp5349
g5327
F0.5
sg5
F0.5
ssg2779
(dp5350
g5
F1
ssg1812
(dp5351
g4240
F0.5
sg5
F0.5
ssg918
(dp5352
g5
F0.5
sS'.'
F0.5
ssg2691
(dp5353
S'bon'
p5354
F0.5
sg5
F0.5
ssS'?'
(dp5355
g5
F1
ssg2786
(dp5356
S'o'
F0.5
sg5
F0.5
ssg5278
(dp5357
S'que'
p5358
F0.5
sg5
F0.5
ssg2126
(dp5359
S'nem'
p5360
F0.33333333333333331
sS'o'
F0.33333333333333331
sg5
F0.33333333333333331
ssg2859
(dp5361
S'a'
F0.99955810870525852
sg5
F0.00044189129474149361
ssg2209
(dp5362
S'!'
F0.33333333333333331
sS'?'
F0.33333333333333331
sg5
F0.33333333333333331
ssg115
(dp5363
S'na'
p5364
F0.5
sg5
F0.5
ssg5250
(dp5365
g5
F1
ssg4124
(dp5366
S'!'
F0.5
sg5
F0.5
ssg4645
(dp5367
S'a'
F0.99966318625799933
sg5
F0.00033681374200067362
ssg3091
(dp5368
S'por'
p5369
F0.5
sg5
F0.5
ssg924
(dp5370
g5
F0.5
sg4182
F0.5
ssg3871
(dp5371
S'e'
F0.99966318625799933
sg5
F0.00033681374200067362
ssg3866
(dp5372
g56
F0.5
sg5
F0.5
ssg4858
(dp5373
S'seu'
p5374
F0.5
sg5
F0.5
ssg2086
(dp5375
g1244
F0.5
sg5
F0.5
ssg4379
(dp5376
g5
F1
ssg3624
(dp5377
g4817
F0.5
sg5
F0.5
ssg1989
(dp5378
S'!'
F0.99969362745098034
sg5
F0.00030637254901960784
ssg4315
(dp5379
g5
F1
ssg223
(dp5380
S'que'
p5381
F0.5
sg5
F0.5
ssg1478
(dp5382
S'de'
p5383
F0.5
sg5
F0.5
ssg2808
(dp5384
g5
F1.0015423752578972e-05
sS'.'
F0.99998998457624744
ssg4408
(dp5385
S','
F0.5
sg5
F0.5
ssg2919
(dp5386
S'seu'
p5387
F0.9995450409463148
sg5
F0.00045495905368516835
ssg4304
(dp5388
g3307
F0.5
sg5
F0.5
ssg4957
(dp5389
g5
F0.5
sS'no'
p5390
F0.5
ssg3374
(dp5391
g4195
F0.25
sg64
F0.125
sS'para'
p5392
F0.125
sg5
F0.125
sS'fazer'
p5393
F0.125
sg3147
F0.125
sS'ganhar'
p5394
F0.125
ssg4452
(dp5395
S'de'
p5396
F0.5
sg5
F0.5
ssg3318
(dp5397
g4568
F0.33333333333333331
sS','
F0.33333333333333331
sg5
F0.33333333333333331
ssg4557
(dp5398
g1619
F0.5
sg5
F0.5
ssg2816
(dp5399
g5
F0.5
sg3814
F0.5
ssg3468
(dp5400
S','
F0.5
sg5
F0.5
ssg2819
(dp5401
S'!'
F0.34315352697095436
sg5
F0.00010373443983402489
sS'.'
F0.65674273858921162
ssg1706
(dp5402
g5149
F0.5
sg5
F0.5
ssg2704
(dp5403
g5
F1
ssg4479
(dp5404
S'que'
p5405
F0.5
sg5
F0.5
ssg4258
(dp5406
S'e'
F0.5
sg5
F0.5
ssg2730
(dp5407
g4573
F0.5
sg5
F0.5
ssg2821
(dp5408
g4859
F0.33333333333333331
sg4698
F0.33333333333333331
sg5
F0.33333333333333331
ssg475
(dp5409
S'!'
F0.33333333333333331
sS'o'
F0.33333333333333331
sg5
F0.33333333333333331
ssg2089
(dp5410
g4253
F0.5
sg5
F0.5
ssg2224
(dp5411
g2940
F0.5
sg5
F0.5
ssg4891
(dp5412
g1425
F0.5
sg5
F0.5
ssg2824
(dp5413
g4125
F0.5
sg5
F0.5
ssg3959
(dp5414
S'que'
p5415
F0.33333333333333331
sS'mais'
p5416
F0.33333333333333331
sg5
F0.33333333333333331
ssg2146
(dp5417
S'isso'
p5418
F0.5
sg5
F0.5
ssg3345
(dp5419
g5
F1
ssg2825
(dp5420
S'haha'
p5421
F0.5
sg5
F0.5
ssg4648
(dp5422
S'como'
p5423
F0.9285714285714286
sg5
F0.071428571428571425
ssg2446
(dp5424
g2087
F0.5
sg5
F0.5
ssg747
(dp5425
g5
F0.5
sS'.'
F0.5
ssg130
(dp5426
g2287
F0.5
sg5
F0.5
ssg5091
(dp5427
g3241
F0.99968857053877291
sg5
F0.0003114294612270321
ssg1193
(dp5428
S'!'
F0.5
sg5
F0.5
ssg1070
(dp5429
g5
F0.5
sg865
F0.5
ssg3989
(dp5430
g807
F0.99960000000000004
sg5
F0.00040000000000000002
ssg488
(dp5431
S','
F0.99933199732798927
sg5
F0.0006680026720106881
ssg3921
(dp5432
g3838
F0.5
sg5
F0.5
ssg5319
(dp5433
g5
F1
ssg491
(dp5434
S'!'
F0.33333333333333331
sS'por'
p5435
F0.33333333333333331
sg5
F0.33333333333333331
ssg1178
(dp5436
g5071
F0.5
sg5
F0.5
ssg3859
(dp5437
g5
F0.5
sg2160
F0.5
ssg5013
(dp5438
S','
F0.5
sg5
F0.5
ssg5014
(dp5439
S','
F0.66666666666666663
sg5
F0.33333333333333331
ssg849
(dp5440
g347
F0.5
sg5
F0.5
ssg2837
(dp5441
g5
F0.00011844131232974062
sS'.'
F0.99988155868767026
ssg2838
(dp5442
g3300
F0.99962990377498151
sg5
F0.00037009622501850479
ssg4752
(dp5443
g1059
F0.75
sg5
F0.25
ssg4271
(dp5444
g3232
F0.33333333333333331
sS'\xc3\x89'
p5445
F0.33333333333333331
sg5
F0.33333333333333331
ssg708
(dp5446
S'por'
p5447
F0.5
sg5
F0.5
ssg498
(dp5448
g5004
F0.5
sg5
F0.5
ssg5049
(dp5449
S'em'
p5450
F0.33333333333333331
sg3932
F0.33333333333333331
sg5
F0.33333333333333331
ssg2841
(dp5451
g2349
F0.5
sg5
F0.5
ssg2331
(dp5452
g4003
F0.5
sg5
F0.5
ssg1873
(dp5453
g5
F0.5
sS'.'
F0.5
ssg2035
(dp5454
S'!'
F0.5
sg5
F0.5
ssg2844
(dp5455
g3262
F0.66666666666666663
sg5
F0.33333333333333331
ssg2800
(dp5456
g5
F0.5
sg4591
F0.5
ssS'U'
(dp5457
g5
F0.00038565368299267258
sS'.'
F0.9996143463170073
ssg379
(dp5458
S'!'
F0.62876604663348179
sg3952
F0.37044799580822635
sg4513
F0.00026198585276395077
sg3765
F0.00026198585276395077
sg5
F0.00026198585276395077
ssg111
(dp5459
g5
F0.5
sS'no'
p5460
F0.5
ssg60
(dp5461
g5
F0.5
sg3274
F0.5
ssg4038
(dp5462
S'com'
p5463
F0.5
sg5
F0.5
ssg5230
(dp5464
g5166
F0.25
sS'suas'
p5465
F0.25
sS'uma'
p5466
F0.25
sg5
F0.25
ssg2852
(dp5467
S'www'
p5468
F0.99953874538745391
sg5
F0.00046125461254612545
ssg1047
(dp5469
S'www'
p5470
F0.14285714285714285
sg3428
F0.14285714285714285
sg5
F0.14285714285714285
sS'no'
p5471
F0.5714285714285714
ssg2855
(dp5472
g256
F0.5
sg5
F0.5
ssg518
(dp5473
S','
F0.5
sg5
F0.5
ss.